
camouse.elf:     file format elf32-littlenios2
camouse.elf
architecture: nios2:r1, flags 0x00000112:
EXEC_P, HAS_SYMS, D_PAGED
start address 0x00020238

Program Header:
    LOAD off    0x00001000 vaddr 0x00020000 paddr 0x00020000 align 2**12
         filesz 0x00000020 memsz 0x00000020 flags r-x
    LOAD off    0x00001020 vaddr 0x00020020 paddr 0x00020020 align 2**12
         filesz 0x00010564 memsz 0x00010564 flags r-x
    LOAD off    0x00011584 vaddr 0x00030584 paddr 0x0003215c align 2**12
         filesz 0x00001bd8 memsz 0x00001bd8 flags rw-
    LOAD off    0x00000d34 vaddr 0x00033d34 paddr 0x00033d34 align 2**12
         filesz 0x00000000 memsz 0x00000164 flags rw-

Sections:
Idx Name          Size      VMA       LMA       File off  Algn
  0 .entry        00000020  00020000  00020000  00001000  2**5
                  CONTENTS, ALLOC, LOAD, READONLY, CODE
  1 .exceptions   00000218  00020020  00020020  00001020  2**2
                  CONTENTS, ALLOC, LOAD, READONLY, CODE
  2 .text         0000fc24  00020238  00020238  00001238  2**2
                  CONTENTS, ALLOC, LOAD, READONLY, CODE
  3 .rodata       00000728  0002fe5c  0002fe5c  00010e5c  2**2
                  CONTENTS, ALLOC, LOAD, READONLY, DATA
  4 .rwdata       00001bd8  00030584  0003215c  00011584  2**2
                  CONTENTS, ALLOC, LOAD, DATA, SMALL_DATA
  5 .bss          00000164  00033d34  00033d34  00013d34  2**2
                  ALLOC, SMALL_DATA
  6 .onchip_memory2_0 00000000  00033e98  00033e98  0001315c  2**0
                  CONTENTS
  7 .comment      0000002d  00000000  00000000  0001315c  2**0
                  CONTENTS, READONLY
  8 .debug_aranges 00001110  00000000  00000000  00013190  2**3
                  CONTENTS, READONLY, DEBUGGING, OCTETS
  9 .debug_info   00030213  00000000  00000000  000142a0  2**0
                  CONTENTS, READONLY, DEBUGGING, OCTETS
 10 .debug_abbrev 0000beb2  00000000  00000000  000444b3  2**0
                  CONTENTS, READONLY, DEBUGGING, OCTETS
 11 .debug_line   000174eb  00000000  00000000  00050365  2**0
                  CONTENTS, READONLY, DEBUGGING, OCTETS
 12 .debug_frame  00002660  00000000  00000000  00067850  2**2
                  CONTENTS, READONLY, DEBUGGING, OCTETS
 13 .debug_str    00003f31  00000000  00000000  00069eb0  2**0
                  CONTENTS, READONLY, DEBUGGING, OCTETS
 14 .debug_loc    0001e0fb  00000000  00000000  0006dde1  2**0
                  CONTENTS, READONLY, DEBUGGING, OCTETS
 15 .debug_alt_sim_info 00000060  00000000  00000000  0008bedc  2**2
                  CONTENTS, READONLY, DEBUGGING, OCTETS
 16 .debug_ranges 000024e8  00000000  00000000  0008bf40  2**3
                  CONTENTS, READONLY, DEBUGGING, OCTETS
 17 .thread_model 00000003  00000000  00000000  0009199d  2**0
                  CONTENTS, READONLY
 18 .cpu          0000000a  00000000  00000000  000919a0  2**0
                  CONTENTS, READONLY
 19 .qsys         00000001  00000000  00000000  000919aa  2**0
                  CONTENTS, READONLY
 20 .simulation_enabled 00000001  00000000  00000000  000919ab  2**0
                  CONTENTS, READONLY
 21 .sysid_hash   00000004  00000000  00000000  000919ac  2**0
                  CONTENTS, READONLY
 22 .sysid_base   00000004  00000000  00000000  000919b0  2**0
                  CONTENTS, READONLY
 23 .sysid_time   00000004  00000000  00000000  000919b4  2**0
                  CONTENTS, READONLY
 24 .stderr_dev   00000009  00000000  00000000  000919b8  2**0
                  CONTENTS, READONLY
 25 .stdin_dev    00000009  00000000  00000000  000919c1  2**0
                  CONTENTS, READONLY
 26 .stdout_dev   00000009  00000000  00000000  000919ca  2**0
                  CONTENTS, READONLY
 27 .sopc_system_name 00000004  00000000  00000000  000919d3  2**0
                  CONTENTS, READONLY
 28 .quartus_project_dir 00000017  00000000  00000000  000919d7  2**0
                  CONTENTS, READONLY
 29 .sopcinfo     0008460c  00000000  00000000  000919ee  2**0
                  CONTENTS, READONLY
SYMBOL TABLE:
00020000 l    d  .entry	00000000 .entry
00020020 l    d  .exceptions	00000000 .exceptions
00020238 l    d  .text	00000000 .text
0002fe5c l    d  .rodata	00000000 .rodata
00030584 l    d  .rwdata	00000000 .rwdata
00033d34 l    d  .bss	00000000 .bss
00033e98 l    d  .onchip_memory2_0	00000000 .onchip_memory2_0
00000000 l    d  .comment	00000000 .comment
00000000 l    d  .debug_aranges	00000000 .debug_aranges
00000000 l    d  .debug_info	00000000 .debug_info
00000000 l    d  .debug_abbrev	00000000 .debug_abbrev
00000000 l    d  .debug_line	00000000 .debug_line
00000000 l    d  .debug_frame	00000000 .debug_frame
00000000 l    d  .debug_str	00000000 .debug_str
00000000 l    d  .debug_loc	00000000 .debug_loc
00000000 l    d  .debug_alt_sim_info	00000000 .debug_alt_sim_info
00000000 l    d  .debug_ranges	00000000 .debug_ranges
00000000 l    df *ABS*	00000000 c:/vcs/git/camouse/fpga/software/camouse_bsp//obj/HAL/src/crt0.o
00020280 l       .text	00000000 alt_after_alt_main
00000000 l    df *ABS*	00000000 alt_irq_handler.c
00000000 l    df *ABS*	00000000 alt_instruction_exception_entry.c
00000000 l    df *ABS*	00000000 count_binary.c
00033d34 l     O .bss	00000001 count
00020284 l     F .text	00000024 lcd_init
000202a8 l     F .text	00000058 initial_message
00020300 l     F .text	00000020 count_led
00020320 l     F .text	00000020 count_sevenseg
00020340 l     F .text	0000002c count_lcd
0002036c l     F .text	00000054 count_all
000203c0 l     F .text	00000144 handle_button_press
00000000 l    df *ABS*	00000000 lib2-divmod.c
00000000 l    df *ABS*	00000000 printf.c
00000000 l    df *ABS*	00000000 putchar.c
00000000 l    df *ABS*	00000000 puts.c
00000000 l    df *ABS*	00000000 strlen.c
00000000 l    df *ABS*	00000000 vfprintf.c
000229d8 l     F .text	000000c0 __sbprintf
0002ff94 l     O .rodata	00000010 blanks.1
0002ff84 l     O .rodata	00000010 zeroes.0
00000000 l    df *ABS*	00000000 wsetup.c
00000000 l    df *ABS*	00000000 dtoa.c
00022bfc l     F .text	000001fc quorem
00000000 l    df *ABS*	00000000 fflush.c
00000000 l    df *ABS*	00000000 findfp.c
0002484c l     F .text	00000008 __fp_lock
00024860 l     F .text	00000008 __fp_unlock
00024868 l     F .text	00000168 __sinit.part.0
00000000 l    df *ABS*	00000000 mallocr.c
00000000 l    df *ABS*	00000000 fvwrite.c
00000000 l    df *ABS*	00000000 fwalk.c
00000000 l    df *ABS*	00000000 impure.c
00030584 l     O .rwdata	00000424 impure_data
00000000 l    df *ABS*	00000000 localeconv.c
00000000 l    df *ABS*	00000000 makebuf.c
00000000 l    df *ABS*	00000000 mallocr.c
00000000 l    df *ABS*	00000000 memchr.c
00000000 l    df *ABS*	00000000 memcpy.c
00000000 l    df *ABS*	00000000 memmove.c
00000000 l    df *ABS*	00000000 memset.c
00000000 l    df *ABS*	00000000 mprec.c
00030040 l     O .rodata	0000000c p05.0
00000000 l    df *ABS*	00000000 putc.c
00000000 l    df *ABS*	00000000 mallocr.c
00000000 l    df *ABS*	00000000 sbrkr.c
00000000 l    df *ABS*	00000000 stdio.c
00000000 l    df *ABS*	00000000 vfprintf.c
00027dd8 l     F .text	000000f4 __sprint_r.part.0
00029150 l     F .text	000000c0 __sbprintf
00030174 l     O .rodata	00000010 blanks.1
00030164 l     O .rodata	00000010 zeroes.0
00000000 l    df *ABS*	00000000 wbuf.c
00000000 l    df *ABS*	00000000 writer.c
00000000 l    df *ABS*	00000000 closer.c
00000000 l    df *ABS*	00000000 assert.c
00000000 l    df *ABS*	00000000 mallocr.c
00000000 l    df *ABS*	00000000 errno.c
00000000 l    df *ABS*	00000000 fclose.c
000295dc l     F .text	000000c0 _fclose_r.part.0
00000000 l    df *ABS*	00000000 fiprintf.c
00000000 l    df *ABS*	00000000 fputwc.c
00000000 l    df *ABS*	00000000 fstatr.c
00000000 l    df *ABS*	00000000 int_errno.c
00000000 l    df *ABS*	00000000 isattyr.c
00000000 l    df *ABS*	00000000 locale.c
00000000 l    df *ABS*	00000000 lseekr.c
00000000 l    df *ABS*	00000000 mbtowc_r.c
00000000 l    df *ABS*	00000000 readr.c
00000000 l    df *ABS*	00000000 strcmp.c
00000000 l    df *ABS*	00000000 vfiprintfr_1.c
00000000 l    df *ABS*	00000000 wcrtomb.c
00000000 l    df *ABS*	00000000 wctomb_r.c
00000000 l    df *ABS*	00000000 abort.c
00000000 l    df *ABS*	00000000 ctype_.c
00000000 l    df *ABS*	00000000 signal.c
00000000 l    df *ABS*	00000000 signalr.c
00000000 l    df *ABS*	00000000 libgcc2.c
00000000 l    df *ABS*	00000000 libgcc2.c
00000000 l    df *ABS*	00000000 adddf3.c
00000000 l    df *ABS*	00000000 divdf3.c
00000000 l    df *ABS*	00000000 eqdf2.c
00000000 l    df *ABS*	00000000 gedf2.c
00000000 l    df *ABS*	00000000 ledf2.c
00000000 l    df *ABS*	00000000 muldf3.c
00000000 l    df *ABS*	00000000 subdf3.c
00000000 l    df *ABS*	00000000 unorddf2.c
00000000 l    df *ABS*	00000000 fixdfsi.c
00000000 l    df *ABS*	00000000 floatsidf.c
00000000 l    df *ABS*	00000000 floatunsidf.c
00000000 l    df *ABS*	00000000 libgcc2.c
00000000 l    df *ABS*	00000000 libgcc2.c
00000000 l    df *ABS*	00000000 alt_close.c
0002d430 l     F .text	0000003c alt_get_errno
00000000 l    df *ABS*	00000000 alt_dev.c
0002d53c l     F .text	0000002c alt_dev_null_write
00000000 l    df *ABS*	00000000 alt_errno.c
00000000 l    df *ABS*	00000000 alt_exit.c
00000000 l    df *ABS*	00000000 alt_fstat.c
0002d5a0 l     F .text	0000003c alt_get_errno
00000000 l    df *ABS*	00000000 alt_getpid.c
00000000 l    df *ABS*	00000000 alt_isatty.c
0002d6ac l     F .text	0000003c alt_get_errno
00000000 l    df *ABS*	00000000 alt_kill.c
0002d78c l     F .text	0000003c alt_get_errno
00000000 l    df *ABS*	00000000 alt_load.c
0002d8f4 l     F .text	00000068 alt_load_section
00000000 l    df *ABS*	00000000 alt_lseek.c
0002d9e0 l     F .text	0000003c alt_get_errno
00000000 l    df *ABS*	00000000 alt_main.c
00000000 l    df *ABS*	00000000 alt_malloc_lock.c
00000000 l    df *ABS*	00000000 alt_read.c
0002dbb4 l     F .text	0000003c alt_get_errno
00000000 l    df *ABS*	00000000 alt_release_fd.c
00000000 l    df *ABS*	00000000 alt_sbrk.c
0003214c l     O .rwdata	00000004 heap_end
00000000 l    df *ABS*	00000000 alt_usleep.c
00000000 l    df *ABS*	00000000 alt_write.c
0002de2c l     F .text	0000003c alt_get_errno
00000000 l    df *ABS*	00000000 alt_sys_init.c
0002df60 l     F .text	00000034 alt_dev_reg
000310c4 l     O .rwdata	00001060 jtag_uart
00000000 l    df *ABS*	00000000 altera_avalon_jtag_uart_fd.c
00000000 l    df *ABS*	00000000 altera_avalon_jtag_uart_init.c
0002e258 l     F .text	0000020c altera_avalon_jtag_uart_irq
0002e464 l     F .text	000000a0 altera_avalon_jtag_uart_timeout
00000000 l    df *ABS*	00000000 altera_avalon_jtag_uart_ioctl.c
00000000 l    df *ABS*	00000000 altera_avalon_jtag_uart_read.c
00000000 l    df *ABS*	00000000 altera_avalon_jtag_uart_write.c
00000000 l    df *ABS*	00000000 altera_avalon_timer_sc.c
0002eaa8 l     F .text	0000007c alt_avalon_timer_sc_irq
00000000 l    df *ABS*	00000000 alt_alarm_start.c
00000000 l    df *ABS*	00000000 alt_busy_sleep.c
00000000 l    df *ABS*	00000000 alt_dcache_flush_all.c
00000000 l    df *ABS*	00000000 alt_dev_llist_insert.c
0002eeac l     F .text	0000003c alt_get_errno
00000000 l    df *ABS*	00000000 alt_do_ctors.c
00000000 l    df *ABS*	00000000 alt_do_dtors.c
00000000 l    df *ABS*	00000000 alt_icache_flush_all.c
00000000 l    df *ABS*	00000000 alt_iic.c
00000000 l    df *ABS*	00000000 alt_iic_isr_register.c
00000000 l    df *ABS*	00000000 alt_io_redirect.c
0002f324 l     F .text	000000b0 alt_open_fd
00000000 l    df *ABS*	00000000 alt_irq_vars.c
00000000 l    df *ABS*	00000000 alt_open.c
0002f450 l     F .text	0000003c alt_get_errno
0002f48c l     F .text	000000b8 alt_file_locked
00000000 l    df *ABS*	00000000 alt_tick.c
00000000 l    df *ABS*	00000000 altera_nios2_gen2_irq.c
00000000 l    df *ABS*	00000000 alt_find_dev.c
00000000 l    df *ABS*	00000000 alt_find_file.c
00000000 l    df *ABS*	00000000 alt_get_fd.c
00000000 l    df *ABS*	00000000 alt_icache_flush.c
00000000 l    df *ABS*	00000000 atexit.c
00000000 l    df *ABS*	00000000 exit.c
00000000 l    df *ABS*	00000000 memcmp.c
00000000 l    df *ABS*	00000000 __atexit.c
00000000 l    df *ABS*	00000000 __call_atexit.c
00033d6c g     O .bss	00000004 alt_instruction_exception_handler
00020828 g     F .text	00000018 putchar
0002740c g     F .text	00000070 _mprec_log10
000274f8 g     F .text	00000060 __any_on
00029a34 g     F .text	00000058 _isatty_r
0003004c g     O .rodata	00000028 __mprec_tinytens
0002daf0 g     F .text	0000007c alt_main
00020840 g     F .text	000000cc _puts_r
00033d98 g     O .bss	00000100 alt_irq
00029b80 g     F .text	00000064 _lseek_r
0003215c g       *ABS*	00000000 __flash_rwdata_start
0002bff0 g     F .text	00000080 .hidden __eqdf2
00033e98 g       *ABS*	00000000 __alt_heap_start
0002a388 g     F .text	00000060 _kill_r
000207e8 g     F .text	00000038 printf
00029d54 g     F .text	0000006c _wcrtomb_r
00029ef8 g     F .text	00000098 _signal_r
00027d74 g     F .text	0000005c __sseek
00024ba0 g     F .text	00000010 __sinit
00029210 g     F .text	00000148 __swbuf_r
00029a8c g     F .text	00000074 _setlocale_r
000249d0 g     F .text	00000068 __sfmoreglue
0002db90 g     F .text	00000024 __malloc_unlock
000261dc g     F .text	0000012c memmove
00024b8c g     F .text	00000014 _cleanup
000263f8 g     F .text	000000a4 _Balloc
0002c070 g     F .text	000000e8 .hidden __gtdf2
0002f868 g     F .text	00000024 altera_nios2_gen2_irq_init
000295d0 g     F .text	0000000c __errno
00020000 g     F .entry	0000001c __reset
000255c4 g     F .text	00000008 __localeconv_l
00033d38 g     O .bss	00000004 edge_capture
00020020 g       *ABS*	00000000 __flash_exceptions_start
000299d4 g     F .text	00000060 _fstat_r
00033d48 g     O .bss	00000004 errno
00027cec g     F .text	00000008 __seofread
00033d54 g     O .bss	00000004 alt_argv
0003a124 g       *ABS*	00000000 _gp
0002ddfc g     F .text	00000030 usleep
0002d68c g     F .text	00000020 getpid
00030f44 g     O .rwdata	00000180 alt_fd_list
00020820 g     F .text	00000008 _putchar_r
0002f88c g     F .text	00000090 alt_find_dev
000260dc g     F .text	00000100 memcpy
00024854 g     F .text	0000000c _cleanup_r
0002d294 g     F .text	000000b8 .hidden __floatsidf
0002f3d4 g     F .text	0000007c alt_io_redirect
0002c158 g     F .text	000000e8 .hidden __ltdf2
0002fe5c g       *ABS*	00000000 __DTOR_END__
0002090c g     F .text	00000010 puts
0002fb54 g     F .text	00000098 alt_exception_cause_generated_bad_addr
00027364 g     F .text	000000a8 __ratio
00029134 g     F .text	0000001c __vfiprintf_internal
0002e660 g     F .text	00000220 altera_avalon_jtag_uart_read
000207b8 g     F .text	00000030 _printf_r
00020000 g       *ABS*	00000000 __alt_mem_onchip_memory2_0
000206f8 g     F .text	00000064 .hidden __udivsi3
0002d6e8 g     F .text	000000a4 isatty
00029f90 g     F .text	000000c4 _raise_r
0002942c g     F .text	00000064 __assert_func
0003009c g     O .rodata	000000c8 __mprec_tens
0002fac4 g     F .text	00000090 alt_icache_flush
00033d44 g     O .bss	00000004 __malloc_top_pad
0002a3e8 g     F .text	00000004 _getpid_r
000255cc g     F .text	0000000c _localeconv_r
00026844 g     F .text	000000b0 __i2b
00025000 g     F .text	00000484 __sfvwrite_r
0002a054 g     F .text	000000bc __sigtramp_r
00027c40 g     F .text	00000058 _sbrk_r
00029c34 g     F .text	00000064 _read_r
00032144 g     O .rwdata	00000004 alt_max_fd
0002969c g     F .text	00000070 _fclose_r
000247c8 g     F .text	00000084 fflush
00033d40 g     O .bss	00000004 __malloc_max_sbrked_mem
0002aeb0 g     F .text	000008f0 .hidden __adddf3
000270f8 g     F .text	00000108 __b2d
0002a97c g     F .text	00000534 .hidden __umoddi3
0002da1c g     F .text	000000d4 lseek
00032124 g     O .rwdata	00000004 _global_impure_ptr
00027704 g     F .text	0000053c _realloc_r
00033e98 g       *ABS*	00000000 __bss_end
0002f23c g     F .text	000000e8 alt_iic_isr_register
0002f73c g     F .text	0000012c alt_tick
0002a3ec g     F .text	00000590 .hidden __udivdi3
00029938 g     F .text	00000024 _fputwc_r
00030074 g     O .rodata	00000028 __mprec_bigtens
000265f8 g     F .text	00000138 __s2b
00029e84 g     F .text	00000018 abort
0002d34c g     F .text	00000090 .hidden __floatunsidf
00026e18 g     F .text	00000058 __mcmp
00024bc0 g     F .text	00000014 __fp_lock_all
0002f1f0 g     F .text	0000004c alt_ic_irq_enabled
0002f698 g     F .text	000000a4 alt_alarm_stop
00033d5c g     O .bss	00000004 alt_irq_active
000200fc g     F .exceptions	000000c8 alt_irq_handler
00030f1c g     O .rwdata	00000028 alt_dev_null
0002ee60 g     F .text	0000004c alt_dcache_flush_all
00026730 g     F .text	00000064 __hi0bits
0002d214 g     F .text	00000080 .hidden __fixdfsi
0003215c g       *ABS*	00000000 __ram_rwdata_end
0003213c g     O .rwdata	00000008 alt_dev_list
0002de68 g     F .text	000000f8 write
00027558 g     F .text	000000cc _putc_r
00030584 g       *ABS*	00000000 __ram_rodata_end
0002d5dc g     F .text	000000b0 fstat
0002d7c8 g     F .text	0000012c kill
0002c158 g     F .text	000000e8 .hidden __ledf2
00026b48 g     F .text	00000148 __pow5mult
00027ee4 g     F .text	00001250 ___vfiprintf_internal_r
0002075c g     F .text	0000005c .hidden __umodsi3
00033e98 g       *ABS*	00000000 end
0002e198 g     F .text	000000c0 altera_avalon_jtag_uart_init
000201c4 g     F .exceptions	00000074 alt_instruction_exception_entry
0002fe5c g       *ABS*	00000000 __CTOR_LIST__
000386a0 g       *ABS*	00000000 __alt_stack_pointer
0002eb24 g     F .text	00000084 alt_avalon_timer_sc_init
0002d3dc g     F .text	00000054 .hidden __clzsi2
0002e880 g     F .text	00000228 altera_avalon_jtag_uart_write
00024bb0 g     F .text	00000004 __sfp_lock_acquire
0002600c g     F .text	000000d0 memchr
000209b4 g     F .text	00002008 ___vfprintf_internal_r
00024d04 g     F .text	000002fc _free_r
000302d8 g     O .rodata	00000180 _ctype_b
00029b00 g     F .text	0000000c __locale_mb_cur_max
0002fd3c g     F .text	00000120 __call_exitprocs
0003212c g     O .rwdata	00000004 __malloc_sbrk_base
00020238 g     F .text	0000004c _start
00033d60 g     O .bss	00000004 _alt_tick_rate
00026c90 g     F .text	00000188 __lshift
00033d64 g     O .bss	00000008 _alt_nticks
0002a1cc g     F .text	000000a0 signal
0002dbf0 g     F .text	000000fc read
0002dfd0 g     F .text	00000064 alt_sys_init
0002fcac g     F .text	00000090 __register_exitproc
000268f4 g     F .text	00000254 __multiply
0002e504 g     F .text	00000068 altera_avalon_jtag_uart_close
00030584 g       *ABS*	00000000 __ram_rwdata_start
0002fe5c g       *ABS*	00000000 __ram_rodata_start
00033d70 g     O .bss	00000028 __malloc_current_mallinfo
00027200 g     F .text	00000164 __d2b
0002e034 g     F .text	00000060 altera_avalon_jtag_uart_read_fd
0002fa24 g     F .text	000000a0 alt_get_fd
0002ed08 g     F .text	00000158 alt_busy_sleep
000293d4 g     F .text	00000058 _close_r
0002fc34 g     F .text	00000078 memcmp
0002e0f4 g     F .text	00000050 altera_avalon_jtag_uart_close_fd
00033e98 g       *ABS*	00000000 __alt_stack_base
0002e144 g     F .text	00000054 altera_avalon_jtag_uart_ioctl_fd
00022a98 g     F .text	00000164 __swsetup_r
0002b7a0 g     F .text	00000850 .hidden __divdf3
00024a38 g     F .text	00000154 __sfp
0002747c g     F .text	0000007c __copybits
000309a8 g     O .rwdata	00000408 __malloc_av_
00024bbc g     F .text	00000004 __sinit_lock_release
0002c240 g     F .text	00000674 .hidden __muldf3
00027c98 g     F .text	00000054 __sread
0002f91c g     F .text	00000108 alt_find_file
0002eee8 g     F .text	000000a8 alt_dev_llist_insert
0002db6c g     F .text	00000024 __malloc_lock
0002dd44 g     F .text	000000b8 sbrk
00024768 g     F .text	00000060 _fflush_r
000294a4 g     F .text	0000012c _calloc_r
00033d34 g       *ABS*	00000000 __bss_start
00026308 g     F .text	000000f0 memset
00020504 g     F .text	00000100 main
00033d58 g     O .bss	00000004 alt_envp
00033d3c g     O .bss	00000004 __malloc_max_total_mem
0002e094 g     F .text	00000060 altera_avalon_jtag_uart_write_fd
00029358 g     F .text	00000018 __swbuf
00027dd0 g     F .text	00000008 __sclose
000386a0 g       *ABS*	00000000 __alt_heap_limit
0002970c g     F .text	00000070 fclose
00022df8 g     F .text	00001748 _dtoa_r
0002582c g     F .text	000007e0 _malloc_r
00029e54 g     F .text	00000030 __ascii_wctomb
00032148 g     O .rwdata	00000004 alt_errno
0002977c g     F .text	00000020 _fiprintf_r
0002a26c g     F .text	00000060 _init_signal
00025484 g     F .text	00000098 _fwalk
00029be4 g     F .text	0000000c _mbtowc_r
00027624 g     F .text	000000e0 putc
00020604 g     F .text	00000080 .hidden __divsi3
00024be8 g     F .text	0000011c _malloc_trim_r
0002fe5c g       *ABS*	00000000 __CTOR_END__
00029c98 g     F .text	000000b8 strcmp
0002fe5c g       *ABS*	00000000 __flash_rodata_start
0002fe5c g       *ABS*	00000000 __DTOR_LIST__
0002bff0 g     F .text	00000080 .hidden __nedf2
0002df94 g     F .text	0000003c alt_irq_init
0002dcec g     F .text	00000058 alt_release_fd
00030458 g     O .rodata	00000100 .hidden __clz_tab
00033d4c g     O .bss	00000004 _PathLocale
0002fbec g     F .text	00000014 atexit
00029370 g     F .text	00000064 _write_r
00029b0c g     F .text	00000074 setlocale
00032128 g     O .rwdata	00000004 _impure_ptr
00033d50 g     O .bss	00000004 alt_argc
00024540 g     F .text	00000228 __sflush_r
0002eff4 g     F .text	00000064 _do_dtors
00020020 g       .exceptions	00000000 alt_irq_entry
00029bf0 g     F .text	00000044 __ascii_mbtowc
0002709c g     F .text	0000005c __ulp
00024bd4 g     F .text	00000014 __fp_unlock_all
00032134 g     O .rwdata	00000008 alt_fs_list
00020020 g       *ABS*	00000000 __ram_exceptions_start
000255d8 g     F .text	0000000c localeconv
00025794 g     F .text	00000098 __swhatbuf_r
0002f08c g     F .text	00000050 alt_ic_isr_register
0003215c g       *ABS*	00000000 _edata
00033e98 g       *ABS*	00000000 _end
000297d4 g     F .text	00000164 __fputwc
00020238 g       *ABS*	00000000 __ram_exceptions_end
0002e56c g     F .text	000000f4 altera_avalon_jtag_uart_ioctl
0002f164 g     F .text	0000008c alt_ic_irq_disable
00027cf4 g     F .text	00000080 __swrite
00032130 g     O .rwdata	00000004 __malloc_trim_threshold
0002fc00 g     F .text	00000034 exit
0002979c g     F .text	00000038 fiprintf
00029d50 g     F .text	00000004 _vfiprintf_r
0002551c g     F .text	000000a8 _fwalk_reent
00026e70 g     F .text	0000022c __mdiff
00020684 g     F .text	00000074 .hidden __modsi3
000386a0 g       *ABS*	00000000 __alt_data_end
00020020 g     F .exceptions	00000000 alt_exception
00024bb4 g     F .text	00000004 __sfp_lock_release
000301d4 g     O .rodata	00000101 _ctype_
0002d1c0 g     F .text	00000054 .hidden __unorddf2
0002d568 g     F .text	00000038 _exit
0002eba8 g     F .text	00000160 alt_alarm_start
000255e4 g     F .text	000001b0 __smakebuf_r
0002091c g     F .text	00000098 strlen
00029e9c g     F .text	0000005c _init_signal_r
0002f544 g     F .text	00000154 open
0002c070 g     F .text	000000e8 .hidden __gedf2
00029490 g     F .text	00000014 __assert
00027ecc g     F .text	00000018 __sprint_r
0002f058 g     F .text	00000034 alt_icache_flush_all
00032150 g     O .rwdata	00000004 alt_priority_mask
0002f0dc g     F .text	00000088 alt_ic_irq_enable
000229bc g     F .text	0000001c __vfprintf_internal
00029e48 g     F .text	0000000c _wctomb_r
0002c8b4 g     F .text	0000090c .hidden __subdf3
00026794 g     F .text	000000b0 __lo0bits
00032154 g     O .rwdata	00000008 alt_alarm_list
0002ef90 g     F .text	00000064 _do_ctors
0002a2cc g     F .text	000000bc __sigtramp
00029dc0 g     F .text	00000088 wcrtomb
0002d46c g     F .text	000000d0 close
00030db0 g     O .rwdata	0000016c __global_locale
0002d95c g     F .text	00000084 alt_load
0002995c g     F .text	00000078 fputwc
0002a110 g     F .text	000000bc raise
00024bb8 g     F .text	00000004 __sinit_lock_acquire
000264c0 g     F .text	00000138 __multadd
0002649c g     F .text	00000024 _Bfree



Disassembly of section .entry:

00020000 <__reset>:
#if NIOS2_ICACHE_SIZE > 0 && defined(ALT_ALLOW_CODE_AT_RESET) && (!defined(ALT_SIM_OPTIMIZE) || defined(NIOS2_ECC_PRESENT))
    /* Assume the instruction cache size is always a power of two. */
#if NIOS2_ICACHE_SIZE > 0x8000
    movhi r2, %hi(NIOS2_ICACHE_SIZE)
#else
    movui r2, NIOS2_ICACHE_SIZE
   20000:	00840014 	movui	r2,4096
#endif

0:
    initi r2
   20004:	1001483a 	initi	r2
    addi r2, r2, -NIOS2_ICACHE_LINE_SIZE
   20008:	10bff804 	addi	r2,r2,-32
    bgt r2, zero, 0b
   2000c:	00bffd16 	blt	zero,r2,20004 <__reset+0x4>
 * Jump to the _start entry point in the .text section if reset code
 * is allowed or if optimizing for RTL simulation.
 */
#if defined(ALT_ALLOW_CODE_AT_RESET) || defined(ALT_SIM_OPTIMIZE)
    /* Jump to the _start entry point in the .text section. */
    movhi r1, %hi(_start)
   20010:	004000b4 	movhi	at,2
    ori r1, r1, %lo(_start)
   20014:	08408e14 	ori	at,at,568
    jmp r1
   20018:	0800683a 	jmp	at
   2001c:	00000000 	call	0 <__reset-0x20000>

Disassembly of section .exceptions:

00020020 <alt_exception>:

#else /* ALT_EXCEPTION_STACK disabled */
        /* 
         * Reserve space on normal stack for registers about to be pushed.
         */
        addi  sp, sp, -76
   20020:	deffed04 	addi	sp,sp,-76
         * documentation for details).
         *
         * Leave a gap in the stack frame at 4(sp) for the muldiv handler to
         * store zero into.
         */
        stw   ra,  0(sp)
   20024:	dfc00015 	stw	ra,0(sp)
        stw   r1,   8(sp)
   20028:	d8400215 	stw	at,8(sp)
        stw   r2,  12(sp)
   2002c:	d8800315 	stw	r2,12(sp)
        stw   r3,  16(sp)
   20030:	d8c00415 	stw	r3,16(sp)
        stw   r4,  20(sp)
   20034:	d9000515 	stw	r4,20(sp)
        stw   r5,  24(sp)
   20038:	d9400615 	stw	r5,24(sp)
        stw   r6,  28(sp)
   2003c:	d9800715 	stw	r6,28(sp)
        stw   r7,  32(sp)
   20040:	d9c00815 	stw	r7,32(sp)
        rdctl r5, estatus   /* Read early to avoid usage stall */
   20044:	000b307a 	rdctl	r5,estatus
        stw   r8,  36(sp)
   20048:	da000915 	stw	r8,36(sp)
        stw   r9,  40(sp)
   2004c:	da400a15 	stw	r9,40(sp)
        stw   r10, 44(sp)
   20050:	da800b15 	stw	r10,44(sp)
        stw   r11, 48(sp)
   20054:	dac00c15 	stw	r11,48(sp)
        stw   r12, 52(sp)
   20058:	db000d15 	stw	r12,52(sp)
        stw   r13, 56(sp)
   2005c:	db400e15 	stw	r13,56(sp)
        stw   r14, 60(sp)
   20060:	db800f15 	stw	r14,60(sp)
        stw   r15, 64(sp)
   20064:	dbc01015 	stw	r15,64(sp)
        /*
         * ea-4 contains the address of the instruction being executed
         * when the exception occured. For interrupt exceptions, we will
         * will be re-issue the isntruction. Store it in 72(sp)
         */
        stw   r5,  68(sp)  /* estatus */
   20068:	d9401115 	stw	r5,68(sp)
        addi  r15, ea, -4  /* instruction that caused exception */
   2006c:	ebffff04 	addi	r15,ea,-4
        stw   r15,  72(sp)
   20070:	dbc01215 	stw	r15,72(sp)
#else
        /*
         * Test to see if the exception was a software exception or caused 
         * by an external interrupt, and vector accordingly.
         */
        rdctl r4, ipending
   20074:	0009313a 	rdctl	r4,ipending
        andi  r2, r5, 1
   20078:	2880004c 	andi	r2,r5,1
        beq   r2, zero, .Lnot_irq
   2007c:	10000326 	beq	r2,zero,2008c <alt_exception+0x6c>
        beq   r4, zero, .Lnot_irq
   20080:	20000226 	beq	r4,zero,2008c <alt_exception+0x6c>
        /*
         * Now that all necessary registers have been preserved, call 
         * alt_irq_handler() to process the interrupts.
         */

        call alt_irq_handler
   20084:	00200fc0 	call	200fc <alt_irq_handler>

        .section .exceptions.irqreturn, "xa"

        br    .Lexception_exit
   20088:	00000706 	br	200a8 <alt_exception+0x88>
         * upon completion, so we write ea (address of instruction *after*
         * the one where the exception occured) into 72(sp). The actual
         * instruction that caused the exception is written in r2, which these
         * handlers will utilize.
         */
        stw ea, 72(sp) /* EA is PC+4 so will skip over instruction causing exception */
   2008c:	df401215 	stw	ea,72(sp)
.Lunknown_16bit:
        addi.n r4, r4, 2 /* Need PC+2 to skip over instruction causing exception */
        stw r4, 72(sp)

#else /* CDX is not Enabled and all instructions are 32bits */
        ldw r2, -4(ea) /* Instruction value that caused exception */
   20090:	e8bfff17 	ldw	r2,-4(ea)
         * debugger is present) or go into an infinite loop since the
         * handling behavior is undefined; in that case we will not return here.
         */

        /* Load exception-causing address as first argument (r4) */
        addi   r4, ea, -4
   20094:	e93fff04 	addi	r4,ea,-4

        /* Call the instruction-exception entry */
        call   alt_instruction_exception_entry
   20098:	00201c40 	call	201c4 <alt_instruction_exception_entry>
         * instruction
         *
         * Return code was 0: Skip. The instruction after the exception is
         * already stored in 72(sp).
         */
        bne   r2, r0, .Lexception_exit
   2009c:	1000021e 	bne	r2,zero,200a8 <alt_exception+0x88>

        /*
         * Otherwise, modify 72(sp) to re-issue the instruction that caused the
         * exception.
         */
        addi  r15, ea, -4  /* instruction that caused exception */
   200a0:	ebffff04 	addi	r15,ea,-4
        stw   r15,  72(sp)
   200a4:	dbc01215 	stw	r15,72(sp)
        /* 
         * Restore the saved registers, so that all general purpose registers 
         * have been restored to their state at the time the interrupt occured.
         */

        ldw   r5,  68(sp)
   200a8:	d9401117 	ldw	r5,68(sp)
        ldw   ea,  72(sp)  /* This becomes the PC once eret is executed */
   200ac:	df401217 	ldw	ea,72(sp)
        ldw   ra,   0(sp)
   200b0:	dfc00017 	ldw	ra,0(sp)

        wrctl estatus, r5
   200b4:	2801707a 	wrctl	estatus,r5

        ldw   r1,   8(sp)
   200b8:	d8400217 	ldw	at,8(sp)
        ldw   r2,  12(sp)
   200bc:	d8800317 	ldw	r2,12(sp)
        ldw   r3,  16(sp)
   200c0:	d8c00417 	ldw	r3,16(sp)
        ldw   r4,  20(sp)
   200c4:	d9000517 	ldw	r4,20(sp)
        ldw   r5,  24(sp)
   200c8:	d9400617 	ldw	r5,24(sp)
        ldw   r6,  28(sp)
   200cc:	d9800717 	ldw	r6,28(sp)
        ldw   r7,  32(sp)
   200d0:	d9c00817 	ldw	r7,32(sp)

#if defined(ALT_EXCEPTION_STACK) && defined(ALT_STACK_CHECK)
        ldw   et, %gprel(alt_exception_old_stack_limit)(gp)
#endif

        ldw   r8,  36(sp)
   200d4:	da000917 	ldw	r8,36(sp)
        ldw   r9,  40(sp)
   200d8:	da400a17 	ldw	r9,40(sp)
        ldw   r10, 44(sp)
   200dc:	da800b17 	ldw	r10,44(sp)
        ldw   r11, 48(sp)
   200e0:	dac00c17 	ldw	r11,48(sp)
        ldw   r12, 52(sp)
   200e4:	db000d17 	ldw	r12,52(sp)
        ldw   r13, 56(sp)
   200e8:	db400e17 	ldw	r13,56(sp)
        ldw   r14, 60(sp)
   200ec:	db800f17 	ldw	r14,60(sp)
        ldw   r15, 64(sp)
   200f0:	dbc01017 	ldw	r15,64(sp)
        stw   et, %gprel(alt_stack_limit_value)(gp)
        stw   zero, %gprel(alt_exception_old_stack_limit)(gp)
#endif /* ALT_STACK_CHECK */
        ldw   sp,  76(sp)
#else /* ALT_EXCEPTION_STACK disabled */
        addi  sp, sp, 76
   200f4:	dec01304 	addi	sp,sp,76

        /*
         * Return to the interrupted instruction.
         */

        eret
   200f8:	ef80083a 	eret

000200fc <alt_irq_handler>:
 * instruction is present if the macro ALT_CI_INTERRUPT_VECTOR defined.
 */

void alt_irq_handler (void) __attribute__ ((section (".exceptions")));
void alt_irq_handler (void)
{
   200fc:	defff904 	addi	sp,sp,-28
   20100:	dfc00615 	stw	ra,24(sp)
   20104:	df000515 	stw	fp,20(sp)
   20108:	df000504 	addi	fp,sp,20
  
  /*
   * Notify the operating system that we are at interrupt level.
   */ 
  
  ALT_OS_INT_ENTER();
   2010c:	0001883a 	nop
#ifndef NIOS2_EIC_PRESENT
static ALT_INLINE alt_u32 ALT_ALWAYS_INLINE alt_irq_pending (void)
{
  alt_u32 active;

  NIOS2_READ_IPENDING (active);
   20110:	0005313a 	rdctl	r2,ipending
   20114:	e0bffc15 	stw	r2,-16(fp)

  return active;
   20118:	e0bffc17 	ldw	r2,-16(fp)
   * Consider the case where the high priority interupt is asserted during
   * the interrupt entry sequence for a lower priority interrupt to see why
   * this is the case.
   */

  active = alt_irq_pending ();
   2011c:	e0bfff15 	stw	r2,-4(fp)

  do
  {
    i = 0;
   20120:	e03ffd15 	stw	zero,-12(fp)
    mask = 1;
   20124:	00800044 	movi	r2,1
   20128:	e0bffe15 	stw	r2,-8(fp)
     * called to clear the interrupt condition.
     */

    do
    {
      if (active & mask)
   2012c:	e0ffff17 	ldw	r3,-4(fp)
   20130:	e0bffe17 	ldw	r2,-8(fp)
   20134:	1884703a 	and	r2,r3,r2
   20138:	10001126 	beq	r2,zero,20180 <alt_irq_handler+0x84>
      { 
#ifdef ALT_ENHANCED_INTERRUPT_API_PRESENT
        alt_irq[i].handler(alt_irq[i].context); 
   2013c:	e0bffd17 	ldw	r2,-12(fp)
   20140:	100690fa 	slli	r3,r2,3
   20144:	008000f4 	movhi	r2,3
   20148:	1885883a 	add	r2,r3,r2
   2014c:	10cf6617 	ldw	r3,15768(r2)
   20150:	e0bffd17 	ldw	r2,-12(fp)
   20154:	100890fa 	slli	r4,r2,3
   20158:	008000f4 	movhi	r2,3
   2015c:	2085883a 	add	r2,r4,r2
   20160:	108f6717 	ldw	r2,15772(r2)
   20164:	1009883a 	mov	r4,r2
   20168:	183ee83a 	callr	r3
#else
        alt_irq[i].handler(alt_irq[i].context, i); 
#endif
        break;
   2016c:	0001883a 	nop
  NIOS2_READ_IPENDING (active);
   20170:	0005313a 	rdctl	r2,ipending
   20174:	e0bffb15 	stw	r2,-20(fp)
  return active;
   20178:	e0bffb17 	ldw	r2,-20(fp)
   2017c:	00000706 	br	2019c <alt_irq_handler+0xa0>
      }
      mask <<= 1;
   20180:	e0bffe17 	ldw	r2,-8(fp)
   20184:	1085883a 	add	r2,r2,r2
   20188:	e0bffe15 	stw	r2,-8(fp)
      i++;
   2018c:	e0bffd17 	ldw	r2,-12(fp)
   20190:	10800044 	addi	r2,r2,1
   20194:	e0bffd15 	stw	r2,-12(fp)
      if (active & mask)
   20198:	003fe406 	br	2012c <alt_irq_handler+0x30>

    } while (1);

    active = alt_irq_pending ();
   2019c:	e0bfff15 	stw	r2,-4(fp)
    
  } while (active);
   201a0:	e0bfff17 	ldw	r2,-4(fp)
   201a4:	103fde1e 	bne	r2,zero,20120 <alt_irq_handler+0x24>

  /*
   * Notify the operating system that interrupt processing is complete.
   */ 

  ALT_OS_INT_EXIT();
   201a8:	0001883a 	nop
}
   201ac:	0001883a 	nop
   201b0:	e037883a 	mov	sp,fp
   201b4:	dfc00117 	ldw	ra,4(sp)
   201b8:	df000017 	ldw	fp,0(sp)
   201bc:	dec00204 	addi	sp,sp,8
   201c0:	f800283a 	ret

000201c4 <alt_instruction_exception_entry>:
 * that handler if it has been registered. Absent a handler, it will
 * break break or hang as discussed below.
 */
int 
alt_instruction_exception_entry (alt_u32 exception_pc)
{
   201c4:	defffb04 	addi	sp,sp,-20
   201c8:	dfc00415 	stw	ra,16(sp)
   201cc:	df000315 	stw	fp,12(sp)
   201d0:	df000304 	addi	fp,sp,12
   201d4:	e13ffd15 	stw	r4,-12(fp)
 * NIOS2_EXCEPTION_CAUSE_NOT_PRESENT. Your handling routine should
 * check the validity of the cause argument before proceeding.
 */
#ifdef NIOS2_HAS_EXTRA_EXCEPTION_INFO
  /* Get exception cause & "badaddr" */
  NIOS2_READ_EXCEPTION(cause);
   201d8:	000531fa 	rdctl	r2,exception
   201dc:	e0bfff15 	stw	r2,-4(fp)
  cause = ( (cause & NIOS2_EXCEPTION_REG_CAUSE_MASK) >>
   201e0:	e0bfff17 	ldw	r2,-4(fp)
   201e4:	1004d0ba 	srli	r2,r2,2
   201e8:	108007cc 	andi	r2,r2,31
   201ec:	e0bfff15 	stw	r2,-4(fp)
              NIOS2_EXCEPTION_REG_CAUSE_OFST );

  NIOS2_READ_BADADDR(badaddr);
   201f0:	0005333a 	rdctl	r2,badaddr
   201f4:	e0bffe15 	stw	r2,-8(fp)
#else
  cause = NIOS2_EXCEPTION_CAUSE_NOT_PRESENT;
  badaddr = 0;
#endif /* NIOS2_HAS_EXTRA_EXCEPTION_INFO */

  if(alt_instruction_exception_handler) {
   201f8:	d0a71217 	ldw	r2,-25528(gp)
   201fc:	10000726 	beq	r2,zero,2021c <alt_instruction_exception_entry+0x58>
     * Call handler. Its return value indicates whether the exception-causing
     * instruction should be re-issued. The code that called us,
     * alt_eceptions_entry.S, will look at this value and adjust the ea
     * register as necessary
     */
    return alt_instruction_exception_handler(cause, exception_pc, badaddr);
   20200:	d0a71217 	ldw	r2,-25528(gp)
   20204:	e0ffff17 	ldw	r3,-4(fp)
   20208:	e1bffe17 	ldw	r6,-8(fp)
   2020c:	e17ffd17 	ldw	r5,-12(fp)
   20210:	1809883a 	mov	r4,r3
   20214:	103ee83a 	callr	r2
   20218:	00000206 	br	20224 <alt_instruction_exception_entry+0x60>
   *    (a peripheral which negates its interrupt output before its
   *    interrupt handler has been executed will cause spurious interrupts)
   */
  else {
#ifdef NIOS2_HAS_DEBUG_STUB
    NIOS2_BREAK();
   2021c:	003da03a 	break	0
      ;
#endif /* NIOS2_HAS_DEBUG_STUB */
  }

  /* We should not get here. Remove compiler warning. */
  return NIOS2_EXCEPTION_RETURN_REISSUE_INST;
   20220:	0005883a 	mov	r2,zero
}
   20224:	e037883a 	mov	sp,fp
   20228:	dfc00117 	ldw	ra,4(sp)
   2022c:	df000017 	ldw	fp,0(sp)
   20230:	dec00204 	addi	sp,sp,8
   20234:	f800283a 	ret

Disassembly of section .text:

00020238 <_start>:

    /* Assume the data cache size is always a power of two. */
#if NIOS2_DCACHE_SIZE > 0x8000
    movhi r2, %hi(NIOS2_DCACHE_SIZE)
#else
    movui r2, NIOS2_DCACHE_SIZE
   20238:	00820014 	movui	r2,2048
#endif

0:
    initd 0(r2)
   2023c:	10000033 	initd	0(r2)
#ifdef NIOS2_ECC_PRESENT
    addi r2, r2, -4
#else
    addi r2, r2, -NIOS2_DCACHE_LINE_SIZE
   20240:	10bff804 	addi	r2,r2,-32
#endif
    bgt r2, zero, 0b
   20244:	00bffd16 	blt	zero,r2,2023c <_start+0x4>

    /*
     * Now that the caches are initialized, set up the stack pointer and global pointer.
     * The values provided by the linker are assumed to be correctly aligned.
     */
    movhi sp, %hi(__alt_stack_pointer)
   20248:	06c000f4 	movhi	sp,3
    ori sp, sp, %lo(__alt_stack_pointer)
   2024c:	dee1a814 	ori	sp,sp,34464
    movhi gp, %hi(_gp)
   20250:	068000f4 	movhi	gp,3
    ori gp, gp, %lo(_gp)
   20254:	d6a84914 	ori	gp,gp,41252
 */
#ifndef ALT_SIM_OPTIMIZE
    /* Log that the BSS is about to be cleared. */
    ALT_LOG_PUTS(alt_log_msg_bss)

    movhi r2, %hi(__bss_start)
   20258:	008000f4 	movhi	r2,3
    ori r2, r2, %lo(__bss_start)
   2025c:	108f4d14 	ori	r2,r2,15668

    movhi r3, %hi(__bss_end)
   20260:	00c000f4 	movhi	r3,3
    ori r3, r3, %lo(__bss_end)
   20264:	18cfa614 	ori	r3,r3,16024

    beq r2, r3, 1f
   20268:	10c00326 	beq	r2,r3,20278 <_start+0x40>

0:
    stw zero, (r2)
   2026c:	10000015 	stw	zero,0(r2)
    addi r2, r2, 4
   20270:	10800104 	addi	r2,r2,4
    bltu r2, r3, 0b
   20274:	10fffd36 	bltu	r2,r3,2026c <_start+0x34>
     * section aren't defined until alt_load() has been called).
     */
    mov   et, zero
#endif

    call alt_load
   20278:	002d95c0 	call	2d95c <alt_load>

    /* Log that alt_main is about to be called. */
    ALT_LOG_PUTS(alt_log_msg_alt_main)

    /* Call the C entry point. It should never return. */
    call alt_main
   2027c:	002daf00 	call	2daf0 <alt_main>

00020280 <alt_after_alt_main>:

    /* Wait in infinite loop in case alt_main does return. */
alt_after_alt_main:
    br alt_after_alt_main
   20280:	003fff06 	br	20280 <alt_after_alt_main>

00020284 <lcd_init>:
 * count_<device>() -- Implements the counting on the respective device.
 * handle_button_press() -- Determines what to do when one of the buttons
 * is pressed.
 */
static void lcd_init( FILE *lcd )
{
   20284:	defffe04 	addi	sp,sp,-8
   20288:	df000115 	stw	fp,4(sp)
   2028c:	df000104 	addi	fp,sp,4
   20290:	e13fff15 	stw	r4,-4(fp)
    /* If the LCD Display exists, write a simple message on the first line. */
    LCD_PRINTF(lcd, "%c%s Counting will be displayed below...", ESC,
               ESC_TOP_LEFT);
}
   20294:	0001883a 	nop
   20298:	e037883a 	mov	sp,fp
   2029c:	df000017 	ldw	fp,0(sp)
   202a0:	dec00104 	addi	sp,sp,4
   202a4:	f800283a 	ret

000202a8 <initial_message>:

static void initial_message()
{
   202a8:	defffe04 	addi	sp,sp,-8
   202ac:	dfc00115 	stw	ra,4(sp)
   202b0:	df000015 	stw	fp,0(sp)
   202b4:	d839883a 	mov	fp,sp
    printf("\n\n**************************\n");
   202b8:	010000f4 	movhi	r4,3
   202bc:	213f9704 	addi	r4,r4,-420
   202c0:	002090c0 	call	2090c <puts>
    printf("* Hello from Nios II!    *\n");
   202c4:	010000f4 	movhi	r4,3
   202c8:	213f9f04 	addi	r4,r4,-388
   202cc:	002090c0 	call	2090c <puts>
    printf("* Counting from 00 to ff *\n");
   202d0:	010000f4 	movhi	r4,3
   202d4:	213fa604 	addi	r4,r4,-360
   202d8:	002090c0 	call	2090c <puts>
    printf("**************************\n");
   202dc:	010000f4 	movhi	r4,3
   202e0:	213fad04 	addi	r4,r4,-332
   202e4:	002090c0 	call	2090c <puts>
}
   202e8:	0001883a 	nop
   202ec:	e037883a 	mov	sp,fp
   202f0:	dfc00117 	ldw	ra,4(sp)
   202f4:	df000017 	ldw	fp,0(sp)
   202f8:	dec00204 	addi	sp,sp,8
   202fc:	f800283a 	ret

00020300 <count_led>:
 * Illuminate LEDs with the value of 'count', if they
 * exist in the system
 */

static void count_led()
{
   20300:	deffff04 	addi	sp,sp,-4
   20304:	df000015 	stw	fp,0(sp)
   20308:	d839883a 	mov	fp,sp
    IOWR_ALTERA_AVALON_PIO_DATA(
        LED_PIO_BASE,
        count
        );
#endif
}
   2030c:	0001883a 	nop
   20310:	e037883a 	mov	sp,fp
   20314:	df000017 	ldw	fp,0(sp)
   20318:	dec00104 	addi	sp,sp,4
   2031c:	f800283a 	ret

00020320 <count_sevenseg>:
 * 
 * Display value of 'count' on the Seven Segment Display
 */

static void count_sevenseg()
{
   20320:	deffff04 	addi	sp,sp,-4
   20324:	df000015 	stw	fp,0(sp)
   20328:	d839883a 	mov	fp,sp
#ifdef SEVEN_SEG_PIO_BASE
    sevenseg_set_hex(count);
#endif
}
   2032c:	0001883a 	nop
   20330:	e037883a 	mov	sp,fp
   20334:	df000017 	ldw	fp,0(sp)
   20338:	dec00104 	addi	sp,sp,4
   2033c:	f800283a 	ret

00020340 <count_lcd>:
 * is treated as an I/O device (i.e.: using fprintf).  You
 * can read more about HAL drivers <link/reference here>.
 */

static void count_lcd( void* arg )
{
   20340:	defffd04 	addi	sp,sp,-12
   20344:	df000215 	stw	fp,8(sp)
   20348:	df000204 	addi	fp,sp,8
   2034c:	e13ffe15 	stw	r4,-8(fp)
    FILE* __attribute__ ((unused))  lcd;  /* Attribute suppresses "unused variable" warning. */
    lcd = (FILE*) arg;
   20350:	e0bffe17 	ldw	r2,-8(fp)
   20354:	e0bfff15 	stw	r2,-4(fp)
    LCD_PRINTF(lcd, "%c%s 0x%x\n", ESC, ESC_COL2_INDENT5, count);
}
   20358:	0001883a 	nop
   2035c:	e037883a 	mov	sp,fp
   20360:	df000017 	ldw	fp,0(sp)
   20364:	dec00104 	addi	sp,sp,4
   20368:	f800283a 	ret

0002036c <count_all>:

/* count_all merely combines all three peripherals counting */

static void count_all( void* arg )
{
   2036c:	defffd04 	addi	sp,sp,-12
   20370:	dfc00215 	stw	ra,8(sp)
   20374:	df000115 	stw	fp,4(sp)
   20378:	df000104 	addi	fp,sp,4
   2037c:	e13fff15 	stw	r4,-4(fp)
    count_led();
   20380:	00203000 	call	20300 <count_led>
    count_sevenseg();
   20384:	00203200 	call	20320 <count_sevenseg>
    count_lcd( arg );
   20388:	e13fff17 	ldw	r4,-4(fp)
   2038c:	00203400 	call	20340 <count_lcd>
    printf("%02x,  ", count);
   20390:	d0a70403 	ldbu	r2,-25584(gp)
   20394:	10803fcc 	andi	r2,r2,255
   20398:	100b883a 	mov	r5,r2
   2039c:	010000f4 	movhi	r4,3
   203a0:	213fb404 	addi	r4,r4,-304
   203a4:	00207e80 	call	207e8 <printf>
}
   203a8:	0001883a 	nop
   203ac:	e037883a 	mov	sp,fp
   203b0:	dfc00117 	ldw	ra,4(sp)
   203b4:	df000017 	ldw	fp,0(sp)
   203b8:	dec00204 	addi	sp,sp,8
   203bc:	f800283a 	ret

000203c0 <handle_button_press>:
  

static void handle_button_press(alt_u8 type, FILE *lcd)
{
   203c0:	defffc04 	addi	sp,sp,-16
   203c4:	dfc00315 	stw	ra,12(sp)
   203c8:	df000215 	stw	fp,8(sp)
   203cc:	df000204 	addi	fp,sp,8
   203d0:	2005883a 	mov	r2,r4
   203d4:	e17ffe15 	stw	r5,-8(fp)
   203d8:	e0bfff05 	stb	r2,-4(fp)
    /* Button press actions while counting. */
    if (type == 'c')
   203dc:	e0bfff03 	ldbu	r2,-4(fp)
   203e0:	108018d8 	cmpnei	r2,r2,99
   203e4:	10001b1e 	bne	r2,zero,20454 <handle_button_press+0x94>
    {
        switch (edge_capture) 
   203e8:	d0a70517 	ldw	r2,-25580(gp)
   203ec:	10c00220 	cmpeqi	r3,r2,8
   203f0:	1800121e 	bne	r3,zero,2043c <handle_button_press+0x7c>
   203f4:	10c00248 	cmpgei	r3,r2,9
   203f8:	1800131e 	bne	r3,zero,20448 <handle_button_press+0x88>
   203fc:	10c00120 	cmpeqi	r3,r2,4
   20400:	18000b1e 	bne	r3,zero,20430 <handle_button_press+0x70>
   20404:	10c00148 	cmpgei	r3,r2,5
   20408:	18000f1e 	bne	r3,zero,20448 <handle_button_press+0x88>
   2040c:	10c00060 	cmpeqi	r3,r2,1
   20410:	1800031e 	bne	r3,zero,20420 <handle_button_press+0x60>
   20414:	108000a0 	cmpeqi	r2,r2,2
   20418:	1000031e 	bne	r2,zero,20428 <handle_button_press+0x68>
   2041c:	00000a06 	br	20448 <handle_button_press+0x88>
        {
            /* Button 1:  Output counting to LED only. */
        case 0x1:
            count_led();
   20420:	00203000 	call	20300 <count_led>
            break;
   20424:	00003106 	br	204ec <handle_button_press+0x12c>
            /* Button 2:  Output counting to SEVEN SEG only. */
        case 0x2:
            count_sevenseg();
   20428:	00203200 	call	20320 <count_sevenseg>
            break;
   2042c:	00002f06 	br	204ec <handle_button_press+0x12c>
            /* Button 3:  Output counting to D only. */
        case 0x4:
            count_lcd( lcd );
   20430:	e13ffe17 	ldw	r4,-8(fp)
   20434:	00203400 	call	20340 <count_lcd>
            break;
   20438:	00002c06 	br	204ec <handle_button_press+0x12c>
            /* Button 4:  Output counting to LED, SEVEN_SEG, and D. */ 
        case 0x8:
            count_all( lcd );
   2043c:	e13ffe17 	ldw	r4,-8(fp)
   20440:	002036c0 	call	2036c <count_all>
            break;
   20444:	00002906 	br	204ec <handle_button_press+0x12c>
            /* If value ends up being something different (shouldn't) do
               same as 8. */
        default:
            count_all( lcd );
   20448:	e13ffe17 	ldw	r4,-8(fp)
   2044c:	002036c0 	call	2036c <count_all>
            break;
   20450:	00002606 	br	204ec <handle_button_press+0x12c>
        }
    }
    /* If 'type' is anything else, assume we're "waiting"...*/
    else
    {
        switch (edge_capture)
   20454:	d0a70517 	ldw	r2,-25580(gp)
   20458:	10c00220 	cmpeqi	r3,r2,8
   2045c:	18001a1e 	bne	r3,zero,204c8 <handle_button_press+0x108>
   20460:	10c00248 	cmpgei	r3,r2,9
   20464:	18001d1e 	bne	r3,zero,204dc <handle_button_press+0x11c>
   20468:	10c00120 	cmpeqi	r3,r2,4
   2046c:	1800111e 	bne	r3,zero,204b4 <handle_button_press+0xf4>
   20470:	10c00148 	cmpgei	r3,r2,5
   20474:	1800191e 	bne	r3,zero,204dc <handle_button_press+0x11c>
   20478:	10c00060 	cmpeqi	r3,r2,1
   2047c:	1800031e 	bne	r3,zero,2048c <handle_button_press+0xcc>
   20480:	108000a0 	cmpeqi	r2,r2,2
   20484:	1000061e 	bne	r2,zero,204a0 <handle_button_press+0xe0>
   20488:	00001406 	br	204dc <handle_button_press+0x11c>
        {
        case 0x1:
            printf( "Button 1\n");
   2048c:	010000f4 	movhi	r4,3
   20490:	213fb604 	addi	r4,r4,-296
   20494:	002090c0 	call	2090c <puts>
            edge_capture = 0;
   20498:	d0270515 	stw	zero,-25580(gp)
            break;
   2049c:	00001306 	br	204ec <handle_button_press+0x12c>
        case 0x2:
            printf( "Button 2\n");
   204a0:	010000f4 	movhi	r4,3
   204a4:	213fb904 	addi	r4,r4,-284
   204a8:	002090c0 	call	2090c <puts>
            edge_capture = 0;
   204ac:	d0270515 	stw	zero,-25580(gp)
            break;
   204b0:	00000e06 	br	204ec <handle_button_press+0x12c>
        case 0x4:
            printf( "Button 3\n");
   204b4:	010000f4 	movhi	r4,3
   204b8:	213fbc04 	addi	r4,r4,-272
   204bc:	002090c0 	call	2090c <puts>
            edge_capture = 0;
   204c0:	d0270515 	stw	zero,-25580(gp)
            break;
   204c4:	00000906 	br	204ec <handle_button_press+0x12c>
        case 0x8:
            printf( "Button 4\n");
   204c8:	010000f4 	movhi	r4,3
   204cc:	213fbf04 	addi	r4,r4,-260
   204d0:	002090c0 	call	2090c <puts>
            edge_capture = 0;
   204d4:	d0270515 	stw	zero,-25580(gp)
            break;
   204d8:	00000406 	br	204ec <handle_button_press+0x12c>
        default:
            printf( "Button press UNKNOWN!!\n");
   204dc:	010000f4 	movhi	r4,3
   204e0:	213fc204 	addi	r4,r4,-248
   204e4:	002090c0 	call	2090c <puts>
        }
    }
}
   204e8:	0001883a 	nop
   204ec:	0001883a 	nop
   204f0:	e037883a 	mov	sp,fp
   204f4:	dfc00117 	ldw	ra,4(sp)
   204f8:	df000017 	ldw	fp,0(sp)
   204fc:	dec00204 	addi	sp,sp,8
   20500:	f800283a 	ret

00020504 <main>:
 * NOTE:  References to Buttons 1-4 correspond to SW0-SW3 on the Development   *
 * Board.                                                                      *
 ******************************************************************************/

int main(void)
{ 
   20504:	defffb04 	addi	sp,sp,-20
   20508:	dfc00415 	stw	ra,16(sp)
   2050c:	df000315 	stw	fp,12(sp)
   20510:	df000304 	addi	fp,sp,12
    int i;
    int  __attribute__ ((unused))  wait_time;  /* Attribute suppresses "var set but not used" warning. */
    FILE * lcd;

    count = 0;
   20514:	d0270405 	stb	zero,-25584(gp)

    /* Initialize the LCD, if there is one.
     */
    lcd = LCD_OPEN();
   20518:	e03ffe15 	stw	zero,-8(fp)
    if(lcd != NULL) {lcd_init( lcd );}
   2051c:	e0bffe17 	ldw	r2,-8(fp)
   20520:	10000226 	beq	r2,zero,2052c <main+0x28>
   20524:	e13ffe17 	ldw	r4,-8(fp)
   20528:	00202840 	call	20284 <lcd_init>
    init_button_pio();
#endif

/* Initial message to output. */

    initial_message();
   2052c:	00202a80 	call	202a8 <initial_message>

/* Continue 0-ff counting loop. */

    while( 1 ) 
    {
        usleep(100000);
   20530:	010000b4 	movhi	r4,2
   20534:	2121a804 	addi	r4,r4,-31072
   20538:	002ddfc0 	call	2ddfc <usleep>
        if (edge_capture != 0)
   2053c:	d0a70517 	ldw	r2,-25580(gp)
   20540:	10000426 	beq	r2,zero,20554 <main+0x50>
        {
            /* Handle button presses while counting... */
            handle_button_press('c', lcd);
   20544:	e17ffe17 	ldw	r5,-8(fp)
   20548:	010018c4 	movi	r4,99
   2054c:	00203c00 	call	203c0 <handle_button_press>
   20550:	00000206 	br	2055c <main+0x58>
        }
        /* If no button presses, try to output counting to all. */
        else
        {
            count_all( lcd );
   20554:	e13ffe17 	ldw	r4,-8(fp)
   20558:	002036c0 	call	2036c <count_all>
        }
        /*
         * If done counting, wait about 7 seconds...
         * detect button presses while waiting.
         */
        if( count == 0xff )
   2055c:	d0a70403 	ldbu	r2,-25584(gp)
   20560:	10803fcc 	andi	r2,r2,255
   20564:	10803fd8 	cmpnei	r2,r2,255
   20568:	1000221e 	bne	r2,zero,205f4 <main+0xf0>
        {
            LCD_PRINTF(lcd, "%c%s %c%s %c%s Waiting...\n", ESC, ESC_TOP_LEFT,
                       ESC, ESC_CLEAR, ESC, ESC_COL1_INDENT5);
            printf("\nWaiting...");
   2056c:	010000f4 	movhi	r4,3
   20570:	213fc804 	addi	r4,r4,-224
   20574:	00207e80 	call	207e8 <printf>
            edge_capture = 0; /* Reset to 0 during wait/pause period. */
   20578:	d0270515 	stw	zero,-25580(gp)

            /* Clear the 2nd. line of the LCD screen. */
            LCD_PRINTF(lcd, "%c%s, %c%s", ESC, ESC_COL2_INDENT5, ESC,
                       ESC_CLEAR);
            wait_time = 0;
   2057c:	e03ffd15 	stw	zero,-12(fp)
            for (i = 0; i<70; ++i)
   20580:	e03fff15 	stw	zero,-4(fp)
   20584:	00001506 	br	205dc <main+0xd8>
            {
                printf(".");
   20588:	01000b84 	movi	r4,46
   2058c:	00208280 	call	20828 <putchar>
                wait_time = i/10;
   20590:	e0bfff17 	ldw	r2,-4(fp)
   20594:	01400284 	movi	r5,10
   20598:	1009883a 	mov	r4,r2
   2059c:	00206040 	call	20604 <__divsi3>
   205a0:	e0bffd15 	stw	r2,-12(fp)
                LCD_PRINTF(lcd, "%c%s %ds\n", ESC, ESC_COL2_INDENT5,
                    wait_time+1);

                if (edge_capture != 0) 
   205a4:	d0a70517 	ldw	r2,-25580(gp)
   205a8:	10000626 	beq	r2,zero,205c4 <main+0xc0>
                {
                    printf( "\nYou pushed:  " );
   205ac:	010000f4 	movhi	r4,3
   205b0:	213fcb04 	addi	r4,r4,-212
   205b4:	00207e80 	call	207e8 <printf>
                    handle_button_press('w', lcd);
   205b8:	e17ffe17 	ldw	r5,-8(fp)
   205bc:	01001dc4 	movi	r4,119
   205c0:	00203c00 	call	203c0 <handle_button_press>
                }
                usleep(100000); /* Sleep for 0.1s. */
   205c4:	010000b4 	movhi	r4,2
   205c8:	2121a804 	addi	r4,r4,-31072
   205cc:	002ddfc0 	call	2ddfc <usleep>
            for (i = 0; i<70; ++i)
   205d0:	e0bfff17 	ldw	r2,-4(fp)
   205d4:	10800044 	addi	r2,r2,1
   205d8:	e0bfff15 	stw	r2,-4(fp)
   205dc:	e0bfff17 	ldw	r2,-4(fp)
   205e0:	10801190 	cmplti	r2,r2,70
   205e4:	103fe81e 	bne	r2,zero,20588 <main+0x84>
            }
            /*  Output the "loop start" messages before looping, again.
             */
            initial_message();
   205e8:	00202a80 	call	202a8 <initial_message>
            lcd_init( lcd );
   205ec:	e13ffe17 	ldw	r4,-8(fp)
   205f0:	00202840 	call	20284 <lcd_init>
        }
        count++;
   205f4:	d0a70403 	ldbu	r2,-25584(gp)
   205f8:	10800044 	addi	r2,r2,1
   205fc:	d0a70405 	stb	r2,-25584(gp)
        usleep(100000);
   20600:	003fcb06 	br	20530 <main+0x2c>

00020604 <__divsi3>:
   20604:	20001a16 	blt	r4,zero,20670 <__divsi3+0x6c>
   20608:	000f883a 	mov	r7,zero
   2060c:	2800020e 	bge	r5,zero,20618 <__divsi3+0x14>
   20610:	014bc83a 	sub	r5,zero,r5
   20614:	39c0005c 	xori	r7,r7,1
   20618:	200d883a 	mov	r6,r4
   2061c:	00c00044 	movi	r3,1
   20620:	2900092e 	bgeu	r5,r4,20648 <__divsi3+0x44>
   20624:	00800804 	movi	r2,32
   20628:	00c00044 	movi	r3,1
   2062c:	00000106 	br	20634 <__divsi3+0x30>
   20630:	10001226 	beq	r2,zero,2067c <__divsi3+0x78>
   20634:	294b883a 	add	r5,r5,r5
   20638:	10bfffc4 	addi	r2,r2,-1
   2063c:	18c7883a 	add	r3,r3,r3
   20640:	293ffb36 	bltu	r5,r4,20630 <__divsi3+0x2c>
   20644:	18000d26 	beq	r3,zero,2067c <__divsi3+0x78>
   20648:	0005883a 	mov	r2,zero
   2064c:	31400236 	bltu	r6,r5,20658 <__divsi3+0x54>
   20650:	314dc83a 	sub	r6,r6,r5
   20654:	10c4b03a 	or	r2,r2,r3
   20658:	1806d07a 	srli	r3,r3,1
   2065c:	280ad07a 	srli	r5,r5,1
   20660:	183ffa1e 	bne	r3,zero,2064c <__divsi3+0x48>
   20664:	38000126 	beq	r7,zero,2066c <__divsi3+0x68>
   20668:	0085c83a 	sub	r2,zero,r2
   2066c:	f800283a 	ret
   20670:	0109c83a 	sub	r4,zero,r4
   20674:	01c00044 	movi	r7,1
   20678:	003fe406 	br	2060c <__divsi3+0x8>
   2067c:	0005883a 	mov	r2,zero
   20680:	003ff806 	br	20664 <__divsi3+0x60>

00020684 <__modsi3>:
   20684:	20001916 	blt	r4,zero,206ec <__modsi3+0x68>
   20688:	000f883a 	mov	r7,zero
   2068c:	2005883a 	mov	r2,r4
   20690:	2800010e 	bge	r5,zero,20698 <__modsi3+0x14>
   20694:	014bc83a 	sub	r5,zero,r5
   20698:	00c00044 	movi	r3,1
   2069c:	2900092e 	bgeu	r5,r4,206c4 <__modsi3+0x40>
   206a0:	01800804 	movi	r6,32
   206a4:	00c00044 	movi	r3,1
   206a8:	00000106 	br	206b0 <__modsi3+0x2c>
   206ac:	30000d26 	beq	r6,zero,206e4 <__modsi3+0x60>
   206b0:	294b883a 	add	r5,r5,r5
   206b4:	31bfffc4 	addi	r6,r6,-1
   206b8:	18c7883a 	add	r3,r3,r3
   206bc:	293ffb36 	bltu	r5,r4,206ac <__modsi3+0x28>
   206c0:	18000826 	beq	r3,zero,206e4 <__modsi3+0x60>
   206c4:	1806d07a 	srli	r3,r3,1
   206c8:	11400136 	bltu	r2,r5,206d0 <__modsi3+0x4c>
   206cc:	1145c83a 	sub	r2,r2,r5
   206d0:	280ad07a 	srli	r5,r5,1
   206d4:	183ffb1e 	bne	r3,zero,206c4 <__modsi3+0x40>
   206d8:	38000126 	beq	r7,zero,206e0 <__modsi3+0x5c>
   206dc:	0085c83a 	sub	r2,zero,r2
   206e0:	f800283a 	ret
   206e4:	2005883a 	mov	r2,r4
   206e8:	003ffb06 	br	206d8 <__modsi3+0x54>
   206ec:	0109c83a 	sub	r4,zero,r4
   206f0:	01c00044 	movi	r7,1
   206f4:	003fe506 	br	2068c <__modsi3+0x8>

000206f8 <__udivsi3>:
   206f8:	200d883a 	mov	r6,r4
   206fc:	2900152e 	bgeu	r5,r4,20754 <__udivsi3+0x5c>
   20700:	28001416 	blt	r5,zero,20754 <__udivsi3+0x5c>
   20704:	00800804 	movi	r2,32
   20708:	00c00044 	movi	r3,1
   2070c:	00000206 	br	20718 <__udivsi3+0x20>
   20710:	10000e26 	beq	r2,zero,2074c <__udivsi3+0x54>
   20714:	28000516 	blt	r5,zero,2072c <__udivsi3+0x34>
   20718:	294b883a 	add	r5,r5,r5
   2071c:	10bfffc4 	addi	r2,r2,-1
   20720:	18c7883a 	add	r3,r3,r3
   20724:	293ffa36 	bltu	r5,r4,20710 <__udivsi3+0x18>
   20728:	18000826 	beq	r3,zero,2074c <__udivsi3+0x54>
   2072c:	0005883a 	mov	r2,zero
   20730:	31400236 	bltu	r6,r5,2073c <__udivsi3+0x44>
   20734:	314dc83a 	sub	r6,r6,r5
   20738:	10c4b03a 	or	r2,r2,r3
   2073c:	1806d07a 	srli	r3,r3,1
   20740:	280ad07a 	srli	r5,r5,1
   20744:	183ffa1e 	bne	r3,zero,20730 <__udivsi3+0x38>
   20748:	f800283a 	ret
   2074c:	0005883a 	mov	r2,zero
   20750:	f800283a 	ret
   20754:	00c00044 	movi	r3,1
   20758:	003ff406 	br	2072c <__udivsi3+0x34>

0002075c <__umodsi3>:
   2075c:	2005883a 	mov	r2,r4
   20760:	2900132e 	bgeu	r5,r4,207b0 <__umodsi3+0x54>
   20764:	28001216 	blt	r5,zero,207b0 <__umodsi3+0x54>
   20768:	01800804 	movi	r6,32
   2076c:	00c00044 	movi	r3,1
   20770:	00000206 	br	2077c <__umodsi3+0x20>
   20774:	30000c26 	beq	r6,zero,207a8 <__umodsi3+0x4c>
   20778:	28000516 	blt	r5,zero,20790 <__umodsi3+0x34>
   2077c:	294b883a 	add	r5,r5,r5
   20780:	31bfffc4 	addi	r6,r6,-1
   20784:	18c7883a 	add	r3,r3,r3
   20788:	293ffa36 	bltu	r5,r4,20774 <__umodsi3+0x18>
   2078c:	18000626 	beq	r3,zero,207a8 <__umodsi3+0x4c>
   20790:	1806d07a 	srli	r3,r3,1
   20794:	11400136 	bltu	r2,r5,2079c <__umodsi3+0x40>
   20798:	1145c83a 	sub	r2,r2,r5
   2079c:	280ad07a 	srli	r5,r5,1
   207a0:	183ffb1e 	bne	r3,zero,20790 <__umodsi3+0x34>
   207a4:	f800283a 	ret
   207a8:	2005883a 	mov	r2,r4
   207ac:	f800283a 	ret
   207b0:	00c00044 	movi	r3,1
   207b4:	003ff606 	br	20790 <__umodsi3+0x34>

000207b8 <_printf_r>:
   207b8:	defffd04 	addi	sp,sp,-12
   207bc:	2805883a 	mov	r2,r5
   207c0:	dfc00015 	stw	ra,0(sp)
   207c4:	d9800115 	stw	r6,4(sp)
   207c8:	d9c00215 	stw	r7,8(sp)
   207cc:	21400217 	ldw	r5,8(r4)
   207d0:	d9c00104 	addi	r7,sp,4
   207d4:	100d883a 	mov	r6,r2
   207d8:	00209b40 	call	209b4 <___vfprintf_internal_r>
   207dc:	dfc00017 	ldw	ra,0(sp)
   207e0:	dec00304 	addi	sp,sp,12
   207e4:	f800283a 	ret

000207e8 <printf>:
   207e8:	defffc04 	addi	sp,sp,-16
   207ec:	dfc00015 	stw	ra,0(sp)
   207f0:	d9400115 	stw	r5,4(sp)
   207f4:	d9800215 	stw	r6,8(sp)
   207f8:	d9c00315 	stw	r7,12(sp)
   207fc:	008000f4 	movhi	r2,3
   20800:	10884a17 	ldw	r2,8488(r2)
   20804:	200b883a 	mov	r5,r4
   20808:	d9800104 	addi	r6,sp,4
   2080c:	11000217 	ldw	r4,8(r2)
   20810:	00229bc0 	call	229bc <__vfprintf_internal>
   20814:	dfc00017 	ldw	ra,0(sp)
   20818:	dec00404 	addi	sp,sp,16
   2081c:	f800283a 	ret

00020820 <_putchar_r>:
   20820:	21800217 	ldw	r6,8(r4)
   20824:	00275581 	jmpi	27558 <_putc_r>

00020828 <putchar>:
   20828:	008000f4 	movhi	r2,3
   2082c:	10884a17 	ldw	r2,8488(r2)
   20830:	200b883a 	mov	r5,r4
   20834:	11800217 	ldw	r6,8(r2)
   20838:	1009883a 	mov	r4,r2
   2083c:	00275581 	jmpi	27558 <_putc_r>

00020840 <_puts_r>:
   20840:	defff504 	addi	sp,sp,-44
   20844:	dc000815 	stw	r16,32(sp)
   20848:	2021883a 	mov	r16,r4
   2084c:	2809883a 	mov	r4,r5
   20850:	dc400915 	stw	r17,36(sp)
   20854:	dfc00a15 	stw	ra,40(sp)
   20858:	2823883a 	mov	r17,r5
   2085c:	002091c0 	call	2091c <strlen>
   20860:	11000044 	addi	r4,r2,1
   20864:	d8800515 	stw	r2,20(sp)
   20868:	00800044 	movi	r2,1
   2086c:	00c000f4 	movhi	r3,3
   20870:	d8800715 	stw	r2,28(sp)
   20874:	d8800404 	addi	r2,sp,16
   20878:	18ffcf04 	addi	r3,r3,-196
   2087c:	d8800115 	stw	r2,4(sp)
   20880:	00800084 	movi	r2,2
   20884:	dc400415 	stw	r17,16(sp)
   20888:	d8c00615 	stw	r3,24(sp)
   2088c:	d9000315 	stw	r4,12(sp)
   20890:	d8800215 	stw	r2,8(sp)
   20894:	81400217 	ldw	r5,8(r16)
   20898:	80000226 	beq	r16,zero,208a4 <_puts_r+0x64>
   2089c:	80800e17 	ldw	r2,56(r16)
   208a0:	10001326 	beq	r2,zero,208f0 <_puts_r+0xb0>
   208a4:	2880030b 	ldhu	r2,12(r5)
   208a8:	10c8000c 	andi	r3,r2,8192
   208ac:	1800061e 	bne	r3,zero,208c8 <_puts_r+0x88>
   208b0:	28c01917 	ldw	r3,100(r5)
   208b4:	0137ffc4 	movi	r4,-8193
   208b8:	10880014 	ori	r2,r2,8192
   208bc:	1906703a 	and	r3,r3,r4
   208c0:	2880030d 	sth	r2,12(r5)
   208c4:	28c01915 	stw	r3,100(r5)
   208c8:	d9800104 	addi	r6,sp,4
   208cc:	8009883a 	mov	r4,r16
   208d0:	00250000 	call	25000 <__sfvwrite_r>
   208d4:	10000b1e 	bne	r2,zero,20904 <_puts_r+0xc4>
   208d8:	00800284 	movi	r2,10
   208dc:	dfc00a17 	ldw	ra,40(sp)
   208e0:	dc400917 	ldw	r17,36(sp)
   208e4:	dc000817 	ldw	r16,32(sp)
   208e8:	dec00b04 	addi	sp,sp,44
   208ec:	f800283a 	ret
   208f0:	8009883a 	mov	r4,r16
   208f4:	d9400015 	stw	r5,0(sp)
   208f8:	0024ba00 	call	24ba0 <__sinit>
   208fc:	d9400017 	ldw	r5,0(sp)
   20900:	003fe806 	br	208a4 <_puts_r+0x64>
   20904:	00bfffc4 	movi	r2,-1
   20908:	003ff406 	br	208dc <_puts_r+0x9c>

0002090c <puts>:
   2090c:	008000f4 	movhi	r2,3
   20910:	200b883a 	mov	r5,r4
   20914:	11084a17 	ldw	r4,8488(r2)
   20918:	00208401 	jmpi	20840 <_puts_r>

0002091c <strlen>:
   2091c:	208000cc 	andi	r2,r4,3
   20920:	10000926 	beq	r2,zero,20948 <strlen+0x2c>
   20924:	2005883a 	mov	r2,r4
   20928:	00000306 	br	20938 <strlen+0x1c>
   2092c:	10800044 	addi	r2,r2,1
   20930:	10c000cc 	andi	r3,r2,3
   20934:	18000526 	beq	r3,zero,2094c <strlen+0x30>
   20938:	10c00007 	ldb	r3,0(r2)
   2093c:	183ffb1e 	bne	r3,zero,2092c <strlen+0x10>
   20940:	1105c83a 	sub	r2,r2,r4
   20944:	f800283a 	ret
   20948:	2005883a 	mov	r2,r4
   2094c:	11400017 	ldw	r5,0(r2)
   20950:	01ffbff4 	movhi	r7,65279
   20954:	39ffbfc4 	addi	r7,r7,-257
   20958:	29c7883a 	add	r3,r5,r7
   2095c:	01a02074 	movhi	r6,32897
   20960:	014a303a 	nor	r5,zero,r5
   20964:	1946703a 	and	r3,r3,r5
   20968:	31a02004 	addi	r6,r6,-32640
   2096c:	1986703a 	and	r3,r3,r6
   20970:	1800071e 	bne	r3,zero,20990 <strlen+0x74>
   20974:	11400117 	ldw	r5,4(r2)
   20978:	10800104 	addi	r2,r2,4
   2097c:	29c7883a 	add	r3,r5,r7
   20980:	014a303a 	nor	r5,zero,r5
   20984:	1946703a 	and	r3,r3,r5
   20988:	1986703a 	and	r3,r3,r6
   2098c:	183ff926 	beq	r3,zero,20974 <strlen+0x58>
   20990:	10c00007 	ldb	r3,0(r2)
   20994:	183fea26 	beq	r3,zero,20940 <strlen+0x24>
   20998:	10c00047 	ldb	r3,1(r2)
   2099c:	10800044 	addi	r2,r2,1
   209a0:	183fe726 	beq	r3,zero,20940 <strlen+0x24>
   209a4:	10c00047 	ldb	r3,1(r2)
   209a8:	10800044 	addi	r2,r2,1
   209ac:	183ffa1e 	bne	r3,zero,20998 <strlen+0x7c>
   209b0:	003fe306 	br	20940 <strlen+0x24>

000209b4 <___vfprintf_internal_r>:
   209b4:	deffbf04 	addi	sp,sp,-260
   209b8:	dfc04015 	stw	ra,256(sp)
   209bc:	dd803d15 	stw	r22,244(sp)
   209c0:	dcc03a15 	stw	r19,232(sp)
   209c4:	dc803915 	stw	r18,228(sp)
   209c8:	2027883a 	mov	r19,r4
   209cc:	2825883a 	mov	r18,r5
   209d0:	302d883a 	mov	r22,r6
   209d4:	d9c00615 	stw	r7,24(sp)
   209d8:	df003f15 	stw	fp,252(sp)
   209dc:	ddc03e15 	stw	r23,248(sp)
   209e0:	dd403c15 	stw	r21,240(sp)
   209e4:	dd003b15 	stw	r20,236(sp)
   209e8:	dc403815 	stw	r17,224(sp)
   209ec:	dc003715 	stw	r16,220(sp)
   209f0:	00255cc0 	call	255cc <_localeconv_r>
   209f4:	10800017 	ldw	r2,0(r2)
   209f8:	1009883a 	mov	r4,r2
   209fc:	d8800d15 	stw	r2,52(sp)
   20a00:	002091c0 	call	2091c <strlen>
   20a04:	d8800b15 	stw	r2,44(sp)
   20a08:	98000226 	beq	r19,zero,20a14 <___vfprintf_internal_r+0x60>
   20a0c:	98800e17 	ldw	r2,56(r19)
   20a10:	1001de26 	beq	r2,zero,2118c <___vfprintf_internal_r+0x7d8>
   20a14:	9080030b 	ldhu	r2,12(r18)
   20a18:	10c8000c 	andi	r3,r2,8192
   20a1c:	1800061e 	bne	r3,zero,20a38 <___vfprintf_internal_r+0x84>
   20a20:	90c01917 	ldw	r3,100(r18)
   20a24:	0137ffc4 	movi	r4,-8193
   20a28:	10880014 	ori	r2,r2,8192
   20a2c:	1906703a 	and	r3,r3,r4
   20a30:	9080030d 	sth	r2,12(r18)
   20a34:	90c01915 	stw	r3,100(r18)
   20a38:	10c0020c 	andi	r3,r2,8
   20a3c:	1800fa26 	beq	r3,zero,20e28 <___vfprintf_internal_r+0x474>
   20a40:	90c00417 	ldw	r3,16(r18)
   20a44:	1800f826 	beq	r3,zero,20e28 <___vfprintf_internal_r+0x474>
   20a48:	1080068c 	andi	r2,r2,26
   20a4c:	10800298 	cmpnei	r2,r2,10
   20a50:	1000fd26 	beq	r2,zero,20e48 <___vfprintf_internal_r+0x494>
   20a54:	d8802704 	addi	r2,sp,156
   20a58:	b02f883a 	mov	r23,r22
   20a5c:	d8801a15 	stw	r2,104(sp)
   20a60:	d8001c15 	stw	zero,112(sp)
   20a64:	d8001b15 	stw	zero,108(sp)
   20a68:	d8000815 	stw	zero,32(sp)
   20a6c:	d8000915 	stw	zero,36(sp)
   20a70:	d8000a15 	stw	zero,40(sp)
   20a74:	d8000c15 	stw	zero,48(sp)
   20a78:	d8001015 	stw	zero,64(sp)
   20a7c:	d8000515 	stw	zero,20(sp)
   20a80:	102d883a 	mov	r22,r2
   20a84:	b8800007 	ldb	r2,0(r23)
   20a88:	1000d526 	beq	r2,zero,20de0 <___vfprintf_internal_r+0x42c>
   20a8c:	b821883a 	mov	r16,r23
   20a90:	00000306 	br	20aa0 <___vfprintf_internal_r+0xec>
   20a94:	80800047 	ldb	r2,1(r16)
   20a98:	84000044 	addi	r16,r16,1
   20a9c:	10012026 	beq	r2,zero,20f20 <___vfprintf_internal_r+0x56c>
   20aa0:	10800958 	cmpnei	r2,r2,37
   20aa4:	103ffb1e 	bne	r2,zero,20a94 <___vfprintf_internal_r+0xe0>
   20aa8:	85e3c83a 	sub	r17,r16,r23
   20aac:	85c11e1e 	bne	r16,r23,20f28 <___vfprintf_internal_r+0x574>
   20ab0:	80800003 	ldbu	r2,0(r16)
   20ab4:	10803fcc 	andi	r2,r2,255
   20ab8:	1080201c 	xori	r2,r2,128
   20abc:	10bfe004 	addi	r2,r2,-128
   20ac0:	1000c726 	beq	r2,zero,20de0 <___vfprintf_internal_r+0x42c>
   20ac4:	82c00047 	ldb	r11,1(r16)
   20ac8:	85c00044 	addi	r23,r16,1
   20acc:	d8001345 	stb	zero,77(sp)
   20ad0:	0009883a 	mov	r4,zero
   20ad4:	000b883a 	mov	r5,zero
   20ad8:	023fffc4 	movi	r8,-1
   20adc:	0021883a 	mov	r16,zero
   20ae0:	0019883a 	mov	r12,zero
   20ae4:	bdc00044 	addi	r23,r23,1
   20ae8:	5839883a 	mov	fp,r11
   20aec:	e0bff804 	addi	r2,fp,-32
   20af0:	10c01668 	cmpgeui	r3,r2,89
   20af4:	18006a1e 	bne	r3,zero,20ca0 <___vfprintf_internal_r+0x2ec>
   20af8:	100490ba 	slli	r2,r2,2
   20afc:	00c000b4 	movhi	r3,2
   20b00:	10c7883a 	add	r3,r2,r3
   20b04:	1882c317 	ldw	r2,2828(r3)
   20b08:	1000683a 	jmp	r2
   20b0c:	000213b0 	cmpltui	zero,zero,2126
   20b10:	00020ca0 	cmpeqi	zero,zero,2098
   20b14:	00020ca0 	cmpeqi	zero,zero,2098
   20b18:	000213a4 	muli	zero,zero,2126
   20b1c:	00020ca0 	cmpeqi	zero,zero,2098
   20b20:	00020ca0 	cmpeqi	zero,zero,2098
   20b24:	00020ca0 	cmpeqi	zero,zero,2098
   20b28:	00020ca0 	cmpeqi	zero,zero,2098
   20b2c:	00020ca0 	cmpeqi	zero,zero,2098
   20b30:	00020ca0 	cmpeqi	zero,zero,2098
   20b34:	00021230 	cmpltui	zero,zero,2120
   20b38:	00021394 	movui	zero,2126
   20b3c:	00020ca0 	cmpeqi	zero,zero,2098
   20b40:	00021248 	cmpgei	zero,zero,2121
   20b44:	00021254 	movui	zero,2121
   20b48:	00020ca0 	cmpeqi	zero,zero,2098
   20b4c:	00021388 	cmpgei	zero,zero,2126
   20b50:	00020c70 	cmpltui	zero,zero,2097
   20b54:	00020c70 	cmpltui	zero,zero,2097
   20b58:	00020c70 	cmpltui	zero,zero,2097
   20b5c:	00020c70 	cmpltui	zero,zero,2097
   20b60:	00020c70 	cmpltui	zero,zero,2097
   20b64:	00020c70 	cmpltui	zero,zero,2097
   20b68:	00020c70 	cmpltui	zero,zero,2097
   20b6c:	00020c70 	cmpltui	zero,zero,2097
   20b70:	00020c70 	cmpltui	zero,zero,2097
   20b74:	00020ca0 	cmpeqi	zero,zero,2098
   20b78:	00020ca0 	cmpeqi	zero,zero,2098
   20b7c:	00020ca0 	cmpeqi	zero,zero,2098
   20b80:	00020ca0 	cmpeqi	zero,zero,2098
   20b84:	00020ca0 	cmpeqi	zero,zero,2098
   20b88:	00020ca0 	cmpeqi	zero,zero,2098
   20b8c:	00020ca0 	cmpeqi	zero,zero,2098
   20b90:	00020ca0 	cmpeqi	zero,zero,2098
   20b94:	00020ca0 	cmpeqi	zero,zero,2098
   20b98:	00020ca0 	cmpeqi	zero,zero,2098
   20b9c:	00021298 	cmpnei	zero,zero,2122
   20ba0:	00020f84 	movi	zero,2110
   20ba4:	00020ca0 	cmpeqi	zero,zero,2098
   20ba8:	00020f84 	movi	zero,2110
   20bac:	00020ca0 	cmpeqi	zero,zero,2098
   20bb0:	00020ca0 	cmpeqi	zero,zero,2098
   20bb4:	00020ca0 	cmpeqi	zero,zero,2098
   20bb8:	00020ca0 	cmpeqi	zero,zero,2098
   20bbc:	00021530 	cmpltui	zero,zero,2132
   20bc0:	00020ca0 	cmpeqi	zero,zero,2098
   20bc4:	00020ca0 	cmpeqi	zero,zero,2098
   20bc8:	00020eb8 	rdprs	zero,zero,2106
   20bcc:	00020ca0 	cmpeqi	zero,zero,2098
   20bd0:	00020ca0 	cmpeqi	zero,zero,2098
   20bd4:	00020ca0 	cmpeqi	zero,zero,2098
   20bd8:	00020ca0 	cmpeqi	zero,zero,2098
   20bdc:	00020ca0 	cmpeqi	zero,zero,2098
   20be0:	00020e90 	cmplti	zero,zero,2106
   20be4:	00020ca0 	cmpeqi	zero,zero,2098
   20be8:	00020ca0 	cmpeqi	zero,zero,2098
   20bec:	00021570 	cmpltui	zero,zero,2133
   20bf0:	00020ca0 	cmpeqi	zero,zero,2098
   20bf4:	00020ca0 	cmpeqi	zero,zero,2098
   20bf8:	00020ca0 	cmpeqi	zero,zero,2098
   20bfc:	00020ca0 	cmpeqi	zero,zero,2098
   20c00:	00020ca0 	cmpeqi	zero,zero,2098
   20c04:	00020ca0 	cmpeqi	zero,zero,2098
   20c08:	00020ca0 	cmpeqi	zero,zero,2098
   20c0c:	00020ca0 	cmpeqi	zero,zero,2098
   20c10:	00020ca0 	cmpeqi	zero,zero,2098
   20c14:	00020ca0 	cmpeqi	zero,zero,2098
   20c18:	00021548 	cmpgei	zero,zero,2133
   20c1c:	00021198 	cmpnei	zero,zero,2118
   20c20:	00020f84 	movi	zero,2110
   20c24:	00020f84 	movi	zero,2110
   20c28:	00020f84 	movi	zero,2110
   20c2c:	0002153c 	xorhi	zero,zero,2132
   20c30:	00021198 	cmpnei	zero,zero,2118
   20c34:	00020ca0 	cmpeqi	zero,zero,2098
   20c38:	00020ca0 	cmpeqi	zero,zero,2098
   20c3c:	000213dc 	xori	zero,zero,2127
   20c40:	00020ca0 	cmpeqi	zero,zero,2098
   20c44:	000214f0 	cmpltui	zero,zero,2131
   20c48:	00020ebc 	xorhi	zero,zero,2106
   20c4c:	000214b0 	cmpltui	zero,zero,2130
   20c50:	000214a4 	muli	zero,zero,2130
   20c54:	00020ca0 	cmpeqi	zero,zero,2098
   20c58:	0002144c 	andi	zero,zero,2129
   20c5c:	00020ca0 	cmpeqi	zero,zero,2098
   20c60:	00020e94 	movui	zero,2106
   20c64:	00020ca0 	cmpeqi	zero,zero,2098
   20c68:	00020ca0 	cmpeqi	zero,zero,2098
   20c6c:	00021404 	movi	zero,2128
   20c70:	0021883a 	mov	r16,zero
   20c74:	e0bff404 	addi	r2,fp,-48
   20c78:	bf000007 	ldb	fp,0(r23)
   20c7c:	840002a4 	muli	r16,r16,10
   20c80:	bdc00044 	addi	r23,r23,1
   20c84:	1421883a 	add	r16,r2,r16
   20c88:	e0bff404 	addi	r2,fp,-48
   20c8c:	10c002b0 	cmpltui	r3,r2,10
   20c90:	183ff91e 	bne	r3,zero,20c78 <___vfprintf_internal_r+0x2c4>
   20c94:	e0bff804 	addi	r2,fp,-32
   20c98:	10c01668 	cmpgeui	r3,r2,89
   20c9c:	183f9626 	beq	r3,zero,20af8 <___vfprintf_internal_r+0x144>
   20ca0:	21003fcc 	andi	r4,r4,255
   20ca4:	2006521e 	bne	r4,zero,225f0 <___vfprintf_internal_r+0x1c3c>
   20ca8:	e0004d26 	beq	fp,zero,20de0 <___vfprintf_internal_r+0x42c>
   20cac:	df001d05 	stb	fp,116(sp)
   20cb0:	d8001345 	stb	zero,77(sp)
   20cb4:	05000044 	movi	r20,1
   20cb8:	05400044 	movi	r21,1
   20cbc:	dc401d04 	addi	r17,sp,116
   20cc0:	db000415 	stw	r12,16(sp)
   20cc4:	0011883a 	mov	r8,zero
   20cc8:	d8000715 	stw	zero,28(sp)
   20ccc:	d8800417 	ldw	r2,16(sp)
   20cd0:	1380008c 	andi	r14,r2,2
   20cd4:	70000126 	beq	r14,zero,20cdc <___vfprintf_internal_r+0x328>
   20cd8:	a5000084 	addi	r20,r20,2
   20cdc:	d8800417 	ldw	r2,16(sp)
   20ce0:	d8c01c17 	ldw	r3,112(sp)
   20ce4:	1340210c 	andi	r13,r2,132
   20ce8:	6800021e 	bne	r13,zero,20cf4 <___vfprintf_internal_r+0x340>
   20cec:	850fc83a 	sub	r7,r16,r20
   20cf0:	01c36916 	blt	zero,r7,21a98 <___vfprintf_internal_r+0x10e4>
   20cf4:	d8801347 	ldb	r2,77(sp)
   20cf8:	10000c26 	beq	r2,zero,20d2c <___vfprintf_internal_r+0x378>
   20cfc:	d8801b17 	ldw	r2,108(sp)
   20d00:	d9001344 	addi	r4,sp,77
   20d04:	18c00044 	addi	r3,r3,1
   20d08:	10800044 	addi	r2,r2,1
   20d0c:	b1000015 	stw	r4,0(r22)
   20d10:	01000044 	movi	r4,1
   20d14:	d8801b15 	stw	r2,108(sp)
   20d18:	b1000115 	stw	r4,4(r22)
   20d1c:	d8c01c15 	stw	r3,112(sp)
   20d20:	10800208 	cmpgei	r2,r2,8
   20d24:	10039d1e 	bne	r2,zero,21b9c <___vfprintf_internal_r+0x11e8>
   20d28:	b5800204 	addi	r22,r22,8
   20d2c:	70000c26 	beq	r14,zero,20d60 <___vfprintf_internal_r+0x3ac>
   20d30:	d8801b17 	ldw	r2,108(sp)
   20d34:	d9001384 	addi	r4,sp,78
   20d38:	18c00084 	addi	r3,r3,2
   20d3c:	10800044 	addi	r2,r2,1
   20d40:	b1000015 	stw	r4,0(r22)
   20d44:	01000084 	movi	r4,2
   20d48:	d8801b15 	stw	r2,108(sp)
   20d4c:	b1000115 	stw	r4,4(r22)
   20d50:	d8c01c15 	stw	r3,112(sp)
   20d54:	10800208 	cmpgei	r2,r2,8
   20d58:	10039e1e 	bne	r2,zero,21bd4 <___vfprintf_internal_r+0x1220>
   20d5c:	b5800204 	addi	r22,r22,8
   20d60:	6b402018 	cmpnei	r13,r13,128
   20d64:	68025a26 	beq	r13,zero,216d0 <___vfprintf_internal_r+0xd1c>
   20d68:	4551c83a 	sub	r8,r8,r21
   20d6c:	02029216 	blt	zero,r8,217b8 <___vfprintf_internal_r+0xe04>
   20d70:	d8800417 	ldw	r2,16(sp)
   20d74:	1080400c 	andi	r2,r2,256
   20d78:	10020f1e 	bne	r2,zero,215b8 <___vfprintf_internal_r+0xc04>
   20d7c:	d8801b17 	ldw	r2,108(sp)
   20d80:	1d47883a 	add	r3,r3,r21
   20d84:	b4400015 	stw	r17,0(r22)
   20d88:	10800044 	addi	r2,r2,1
   20d8c:	b5400115 	stw	r21,4(r22)
   20d90:	d8801b15 	stw	r2,108(sp)
   20d94:	d8c01c15 	stw	r3,112(sp)
   20d98:	10800208 	cmpgei	r2,r2,8
   20d9c:	1002fb1e 	bne	r2,zero,2198c <___vfprintf_internal_r+0xfd8>
   20da0:	b5800204 	addi	r22,r22,8
   20da4:	d8800417 	ldw	r2,16(sp)
   20da8:	1440010c 	andi	r17,r2,4
   20dac:	88000226 	beq	r17,zero,20db8 <___vfprintf_internal_r+0x404>
   20db0:	8523c83a 	sub	r17,r16,r20
   20db4:	0440c616 	blt	zero,r17,210d0 <___vfprintf_internal_r+0x71c>
   20db8:	8500010e 	bge	r16,r20,20dc0 <___vfprintf_internal_r+0x40c>
   20dbc:	a021883a 	mov	r16,r20
   20dc0:	d8800517 	ldw	r2,20(sp)
   20dc4:	1405883a 	add	r2,r2,r16
   20dc8:	d8800515 	stw	r2,20(sp)
   20dcc:	1802c11e 	bne	r3,zero,218d4 <___vfprintf_internal_r+0xf20>
   20dd0:	b8800007 	ldb	r2,0(r23)
   20dd4:	d8001b15 	stw	zero,108(sp)
   20dd8:	dd802704 	addi	r22,sp,156
   20ddc:	103f2b1e 	bne	r2,zero,20a8c <___vfprintf_internal_r+0xd8>
   20de0:	d8801c17 	ldw	r2,112(sp)
   20de4:	1005fd1e 	bne	r2,zero,225dc <___vfprintf_internal_r+0x1c28>
   20de8:	9080030b 	ldhu	r2,12(r18)
   20dec:	1080100c 	andi	r2,r2,64
   20df0:	1006a91e 	bne	r2,zero,22898 <___vfprintf_internal_r+0x1ee4>
   20df4:	d8800517 	ldw	r2,20(sp)
   20df8:	dfc04017 	ldw	ra,256(sp)
   20dfc:	df003f17 	ldw	fp,252(sp)
   20e00:	ddc03e17 	ldw	r23,248(sp)
   20e04:	dd803d17 	ldw	r22,244(sp)
   20e08:	dd403c17 	ldw	r21,240(sp)
   20e0c:	dd003b17 	ldw	r20,236(sp)
   20e10:	dcc03a17 	ldw	r19,232(sp)
   20e14:	dc803917 	ldw	r18,228(sp)
   20e18:	dc403817 	ldw	r17,224(sp)
   20e1c:	dc003717 	ldw	r16,220(sp)
   20e20:	dec04104 	addi	sp,sp,260
   20e24:	f800283a 	ret
   20e28:	900b883a 	mov	r5,r18
   20e2c:	9809883a 	mov	r4,r19
   20e30:	0022a980 	call	22a98 <__swsetup_r>
   20e34:	1006981e 	bne	r2,zero,22898 <___vfprintf_internal_r+0x1ee4>
   20e38:	9080030b 	ldhu	r2,12(r18)
   20e3c:	1080068c 	andi	r2,r2,26
   20e40:	10800298 	cmpnei	r2,r2,10
   20e44:	103f031e 	bne	r2,zero,20a54 <___vfprintf_internal_r+0xa0>
   20e48:	9080038f 	ldh	r2,14(r18)
   20e4c:	103f0116 	blt	r2,zero,20a54 <___vfprintf_internal_r+0xa0>
   20e50:	d9c00617 	ldw	r7,24(sp)
   20e54:	b00d883a 	mov	r6,r22
   20e58:	900b883a 	mov	r5,r18
   20e5c:	9809883a 	mov	r4,r19
   20e60:	dfc04017 	ldw	ra,256(sp)
   20e64:	df003f17 	ldw	fp,252(sp)
   20e68:	ddc03e17 	ldw	r23,248(sp)
   20e6c:	dd803d17 	ldw	r22,244(sp)
   20e70:	dd403c17 	ldw	r21,240(sp)
   20e74:	dd003b17 	ldw	r20,236(sp)
   20e78:	dcc03a17 	ldw	r19,232(sp)
   20e7c:	dc803917 	ldw	r18,228(sp)
   20e80:	dc403817 	ldw	r17,224(sp)
   20e84:	dc003717 	ldw	r16,220(sp)
   20e88:	dec04104 	addi	sp,sp,260
   20e8c:	00229d81 	jmpi	229d8 <__sbprintf>
   20e90:	63000414 	ori	r12,r12,16
   20e94:	6080080c 	andi	r2,r12,32
   20e98:	10008126 	beq	r2,zero,210a0 <___vfprintf_internal_r+0x6ec>
   20e9c:	d8c00617 	ldw	r3,24(sp)
   20ea0:	00800044 	movi	r2,1
   20ea4:	1d000017 	ldw	r20,0(r3)
   20ea8:	1d400117 	ldw	r21,4(r3)
   20eac:	18c00204 	addi	r3,r3,8
   20eb0:	d8c00615 	stw	r3,24(sp)
   20eb4:	00000906 	br	20edc <___vfprintf_internal_r+0x528>
   20eb8:	63000414 	ori	r12,r12,16
   20ebc:	6080080c 	andi	r2,r12,32
   20ec0:	10006b26 	beq	r2,zero,21070 <___vfprintf_internal_r+0x6bc>
   20ec4:	d8c00617 	ldw	r3,24(sp)
   20ec8:	0005883a 	mov	r2,zero
   20ecc:	1d000017 	ldw	r20,0(r3)
   20ed0:	1d400117 	ldw	r21,4(r3)
   20ed4:	18c00204 	addi	r3,r3,8
   20ed8:	d8c00615 	stw	r3,24(sp)
   20edc:	d8001345 	stb	zero,77(sp)
   20ee0:	40ffffe0 	cmpeqi	r3,r8,-1
   20ee4:	001b883a 	mov	r13,zero
   20ee8:	1801081e 	bne	r3,zero,2130c <___vfprintf_internal_r+0x958>
   20eec:	047fdfc4 	movi	r17,-129
   20ef0:	6448703a 	and	r4,r12,r17
   20ef4:	a546b03a 	or	r3,r20,r21
   20ef8:	d9000415 	stw	r4,16(sp)
   20efc:	1802e41e 	bne	r3,zero,21a90 <___vfprintf_internal_r+0x10dc>
   20f00:	40025e1e 	bne	r8,zero,2187c <___vfprintf_internal_r+0xec8>
   20f04:	1003ac1e 	bne	r2,zero,21db8 <___vfprintf_internal_r+0x1404>
   20f08:	6540004c 	andi	r21,r12,1
   20f0c:	a803e226 	beq	r21,zero,21e98 <___vfprintf_internal_r+0x14e4>
   20f10:	00800c04 	movi	r2,48
   20f14:	d88026c5 	stb	r2,155(sp)
   20f18:	dc4026c4 	addi	r17,sp,155
   20f1c:	0000ba06 	br	21208 <___vfprintf_internal_r+0x854>
   20f20:	85e3c83a 	sub	r17,r16,r23
   20f24:	85ffae26 	beq	r16,r23,20de0 <___vfprintf_internal_r+0x42c>
   20f28:	d8c01c17 	ldw	r3,112(sp)
   20f2c:	d8801b17 	ldw	r2,108(sp)
   20f30:	b5c00015 	stw	r23,0(r22)
   20f34:	1c47883a 	add	r3,r3,r17
   20f38:	10800044 	addi	r2,r2,1
   20f3c:	d8801b15 	stw	r2,108(sp)
   20f40:	b4400115 	stw	r17,4(r22)
   20f44:	d8c01c15 	stw	r3,112(sp)
   20f48:	10800208 	cmpgei	r2,r2,8
   20f4c:	1000061e 	bne	r2,zero,20f68 <___vfprintf_internal_r+0x5b4>
   20f50:	b5800204 	addi	r22,r22,8
   20f54:	d8c00517 	ldw	r3,20(sp)
   20f58:	80800003 	ldbu	r2,0(r16)
   20f5c:	1c47883a 	add	r3,r3,r17
   20f60:	d8c00515 	stw	r3,20(sp)
   20f64:	003ed306 	br	20ab4 <___vfprintf_internal_r+0x100>
   20f68:	d9801a04 	addi	r6,sp,104
   20f6c:	900b883a 	mov	r5,r18
   20f70:	9809883a 	mov	r4,r19
   20f74:	0027ecc0 	call	27ecc <__sprint_r>
   20f78:	103f9b1e 	bne	r2,zero,20de8 <___vfprintf_internal_r+0x434>
   20f7c:	dd802704 	addi	r22,sp,156
   20f80:	003ff406 	br	20f54 <___vfprintf_internal_r+0x5a0>
   20f84:	21003fcc 	andi	r4,r4,255
   20f88:	2006271e 	bne	r4,zero,22828 <___vfprintf_internal_r+0x1e74>
   20f8c:	d8c00617 	ldw	r3,24(sp)
   20f90:	6080020c 	andi	r2,r12,8
   20f94:	19000204 	addi	r4,r3,8
   20f98:	d9000e15 	stw	r4,56(sp)
   20f9c:	1003c01e 	bne	r2,zero,21ea0 <___vfprintf_internal_r+0x14ec>
   20fa0:	d8800617 	ldw	r2,24(sp)
   20fa4:	10c00017 	ldw	r3,0(r2)
   20fa8:	10800117 	ldw	r2,4(r2)
   20fac:	d8c00915 	stw	r3,36(sp)
   20fb0:	d8800a15 	stw	r2,40(sp)
   20fb4:	dd400a17 	ldw	r21,40(sp)
   20fb8:	dd000917 	ldw	r20,36(sp)
   20fbc:	00a00034 	movhi	r2,32768
   20fc0:	10bfffc4 	addi	r2,r2,-1
   20fc4:	a8a2703a 	and	r17,r21,r2
   20fc8:	01dffc34 	movhi	r7,32752
   20fcc:	01bfffc4 	movi	r6,-1
   20fd0:	39ffffc4 	addi	r7,r7,-1
   20fd4:	a009883a 	mov	r4,r20
   20fd8:	880b883a 	mov	r5,r17
   20fdc:	da000615 	stw	r8,24(sp)
   20fe0:	db000415 	stw	r12,16(sp)
   20fe4:	002d1c00 	call	2d1c0 <__unorddf2>
   20fe8:	db000417 	ldw	r12,16(sp)
   20fec:	da000617 	ldw	r8,24(sp)
   20ff0:	10044b1e 	bne	r2,zero,22120 <___vfprintf_internal_r+0x176c>
   20ff4:	01dffc34 	movhi	r7,32752
   20ff8:	01bfffc4 	movi	r6,-1
   20ffc:	39ffffc4 	addi	r7,r7,-1
   21000:	a009883a 	mov	r4,r20
   21004:	880b883a 	mov	r5,r17
   21008:	002c1580 	call	2c158 <__ledf2>
   2100c:	db000417 	ldw	r12,16(sp)
   21010:	da000617 	ldw	r8,24(sp)
   21014:	0084420e 	bge	zero,r2,22120 <___vfprintf_internal_r+0x176c>
   21018:	000d883a 	mov	r6,zero
   2101c:	000f883a 	mov	r7,zero
   21020:	a009883a 	mov	r4,r20
   21024:	a80b883a 	mov	r5,r21
   21028:	002c1580 	call	2c158 <__ledf2>
   2102c:	db000417 	ldw	r12,16(sp)
   21030:	10055716 	blt	r2,zero,22590 <___vfprintf_internal_r+0x1bdc>
   21034:	db401343 	ldbu	r13,77(sp)
   21038:	e0801210 	cmplti	r2,fp,72
   2103c:	1005451e 	bne	r2,zero,22554 <___vfprintf_internal_r+0x1ba0>
   21040:	044000f4 	movhi	r17,3
   21044:	8c7fd104 	addi	r17,r17,-188
   21048:	00bfdfc4 	movi	r2,-129
   2104c:	6084703a 	and	r2,r12,r2
   21050:	d8800415 	stw	r2,16(sp)
   21054:	d8800e17 	ldw	r2,56(sp)
   21058:	050000c4 	movi	r20,3
   2105c:	054000c4 	movi	r21,3
   21060:	d8800615 	stw	r2,24(sp)
   21064:	0011883a 	mov	r8,zero
   21068:	d8000715 	stw	zero,28(sp)
   2106c:	00006a06 	br	21218 <___vfprintf_internal_r+0x864>
   21070:	d8c00617 	ldw	r3,24(sp)
   21074:	6080040c 	andi	r2,r12,16
   21078:	1d000017 	ldw	r20,0(r3)
   2107c:	18c00104 	addi	r3,r3,4
   21080:	d8c00615 	stw	r3,24(sp)
   21084:	1000031e 	bne	r2,zero,21094 <___vfprintf_internal_r+0x6e0>
   21088:	6080100c 	andi	r2,r12,64
   2108c:	10000126 	beq	r2,zero,21094 <___vfprintf_internal_r+0x6e0>
   21090:	a53fffcc 	andi	r20,r20,65535
   21094:	002b883a 	mov	r21,zero
   21098:	0005883a 	mov	r2,zero
   2109c:	003f8f06 	br	20edc <___vfprintf_internal_r+0x528>
   210a0:	d8c00617 	ldw	r3,24(sp)
   210a4:	6080040c 	andi	r2,r12,16
   210a8:	1d000017 	ldw	r20,0(r3)
   210ac:	18c00104 	addi	r3,r3,4
   210b0:	d8c00615 	stw	r3,24(sp)
   210b4:	1000031e 	bne	r2,zero,210c4 <___vfprintf_internal_r+0x710>
   210b8:	6080100c 	andi	r2,r12,64
   210bc:	10000126 	beq	r2,zero,210c4 <___vfprintf_internal_r+0x710>
   210c0:	a53fffcc 	andi	r20,r20,65535
   210c4:	002b883a 	mov	r21,zero
   210c8:	00800044 	movi	r2,1
   210cc:	003f8306 	br	20edc <___vfprintf_internal_r+0x528>
   210d0:	030000f4 	movhi	r12,3
   210d4:	89000450 	cmplti	r4,r17,17
   210d8:	d8801b17 	ldw	r2,108(sp)
   210dc:	633fe504 	addi	r12,r12,-108
   210e0:	20001b1e 	bne	r4,zero,21150 <___vfprintf_internal_r+0x79c>
   210e4:	05400404 	movi	r21,16
   210e8:	6039883a 	mov	fp,r12
   210ec:	00000406 	br	21100 <___vfprintf_internal_r+0x74c>
   210f0:	8c7ffc04 	addi	r17,r17,-16
   210f4:	89000448 	cmpgei	r4,r17,17
   210f8:	b5800204 	addi	r22,r22,8
   210fc:	20001326 	beq	r4,zero,2114c <___vfprintf_internal_r+0x798>
   21100:	10800044 	addi	r2,r2,1
   21104:	18c00404 	addi	r3,r3,16
   21108:	b7000015 	stw	fp,0(r22)
   2110c:	b5400115 	stw	r21,4(r22)
   21110:	d8c01c15 	stw	r3,112(sp)
   21114:	d8801b15 	stw	r2,108(sp)
   21118:	11000208 	cmpgei	r4,r2,8
   2111c:	203ff426 	beq	r4,zero,210f0 <___vfprintf_internal_r+0x73c>
   21120:	d9801a04 	addi	r6,sp,104
   21124:	900b883a 	mov	r5,r18
   21128:	9809883a 	mov	r4,r19
   2112c:	0027ecc0 	call	27ecc <__sprint_r>
   21130:	103f2d1e 	bne	r2,zero,20de8 <___vfprintf_internal_r+0x434>
   21134:	8c7ffc04 	addi	r17,r17,-16
   21138:	89000448 	cmpgei	r4,r17,17
   2113c:	d8c01c17 	ldw	r3,112(sp)
   21140:	d8801b17 	ldw	r2,108(sp)
   21144:	dd802704 	addi	r22,sp,156
   21148:	203fed1e 	bne	r4,zero,21100 <___vfprintf_internal_r+0x74c>
   2114c:	e019883a 	mov	r12,fp
   21150:	10800044 	addi	r2,r2,1
   21154:	1c47883a 	add	r3,r3,r17
   21158:	d8801b15 	stw	r2,108(sp)
   2115c:	b3000015 	stw	r12,0(r22)
   21160:	b4400115 	stw	r17,4(r22)
   21164:	d8c01c15 	stw	r3,112(sp)
   21168:	10800210 	cmplti	r2,r2,8
   2116c:	103f121e 	bne	r2,zero,20db8 <___vfprintf_internal_r+0x404>
   21170:	d9801a04 	addi	r6,sp,104
   21174:	900b883a 	mov	r5,r18
   21178:	9809883a 	mov	r4,r19
   2117c:	0027ecc0 	call	27ecc <__sprint_r>
   21180:	103f191e 	bne	r2,zero,20de8 <___vfprintf_internal_r+0x434>
   21184:	d8c01c17 	ldw	r3,112(sp)
   21188:	003f0b06 	br	20db8 <___vfprintf_internal_r+0x404>
   2118c:	9809883a 	mov	r4,r19
   21190:	0024ba00 	call	24ba0 <__sinit>
   21194:	003e1f06 	br	20a14 <___vfprintf_internal_r+0x60>
   21198:	21003fcc 	andi	r4,r4,255
   2119c:	2005a41e 	bne	r4,zero,22830 <___vfprintf_internal_r+0x1e7c>
   211a0:	6080080c 	andi	r2,r12,32
   211a4:	10004126 	beq	r2,zero,212ac <___vfprintf_internal_r+0x8f8>
   211a8:	d8c00617 	ldw	r3,24(sp)
   211ac:	18800117 	ldw	r2,4(r3)
   211b0:	1d000017 	ldw	r20,0(r3)
   211b4:	18c00204 	addi	r3,r3,8
   211b8:	d8c00615 	stw	r3,24(sp)
   211bc:	102b883a 	mov	r21,r2
   211c0:	10004816 	blt	r2,zero,212e4 <___vfprintf_internal_r+0x930>
   211c4:	40bfffd8 	cmpnei	r2,r8,-1
   211c8:	db401343 	ldbu	r13,77(sp)
   211cc:	10000626 	beq	r2,zero,211e8 <___vfprintf_internal_r+0x834>
   211d0:	047fdfc4 	movi	r17,-129
   211d4:	6446703a 	and	r3,r12,r17
   211d8:	a544b03a 	or	r2,r20,r21
   211dc:	d8c00415 	stw	r3,16(sp)
   211e0:	1002f426 	beq	r2,zero,21db4 <___vfprintf_internal_r+0x1400>
   211e4:	db000417 	ldw	r12,16(sp)
   211e8:	a8037d1e 	bne	r21,zero,21fe0 <___vfprintf_internal_r+0x162c>
   211ec:	a08002a8 	cmpgeui	r2,r20,10
   211f0:	10037b1e 	bne	r2,zero,21fe0 <___vfprintf_internal_r+0x162c>
   211f4:	a5000c04 	addi	r20,r20,48
   211f8:	dd0026c5 	stb	r20,155(sp)
   211fc:	db000415 	stw	r12,16(sp)
   21200:	05400044 	movi	r21,1
   21204:	dc4026c4 	addi	r17,sp,155
   21208:	4029883a 	mov	r20,r8
   2120c:	4540010e 	bge	r8,r21,21214 <___vfprintf_internal_r+0x860>
   21210:	a829883a 	mov	r20,r21
   21214:	d8000715 	stw	zero,28(sp)
   21218:	6b403fcc 	andi	r13,r13,255
   2121c:	6b40201c 	xori	r13,r13,128
   21220:	6b7fe004 	addi	r13,r13,-128
   21224:	683ea926 	beq	r13,zero,20ccc <___vfprintf_internal_r+0x318>
   21228:	a5000044 	addi	r20,r20,1
   2122c:	003ea706 	br	20ccc <___vfprintf_internal_r+0x318>
   21230:	d8800617 	ldw	r2,24(sp)
   21234:	14000017 	ldw	r16,0(r2)
   21238:	10800104 	addi	r2,r2,4
   2123c:	8003130e 	bge	r16,zero,21e8c <___vfprintf_internal_r+0x14d8>
   21240:	0421c83a 	sub	r16,zero,r16
   21244:	d8800615 	stw	r2,24(sp)
   21248:	bac00007 	ldb	r11,0(r23)
   2124c:	63000114 	ori	r12,r12,4
   21250:	003e2406 	br	20ae4 <___vfprintf_internal_r+0x130>
   21254:	bf000007 	ldb	fp,0(r23)
   21258:	b8c00044 	addi	r3,r23,1
   2125c:	e0800aa0 	cmpeqi	r2,fp,42
   21260:	1005c71e 	bne	r2,zero,22980 <___vfprintf_internal_r+0x1fcc>
   21264:	e0bff404 	addi	r2,fp,-48
   21268:	118002b0 	cmpltui	r6,r2,10
   2126c:	182f883a 	mov	r23,r3
   21270:	0011883a 	mov	r8,zero
   21274:	303e1d26 	beq	r6,zero,20aec <___vfprintf_internal_r+0x138>
   21278:	bf000007 	ldb	fp,0(r23)
   2127c:	420002a4 	muli	r8,r8,10
   21280:	bdc00044 	addi	r23,r23,1
   21284:	4091883a 	add	r8,r8,r2
   21288:	e0bff404 	addi	r2,fp,-48
   2128c:	10c002b0 	cmpltui	r3,r2,10
   21290:	183ff91e 	bne	r3,zero,21278 <___vfprintf_internal_r+0x8c4>
   21294:	003e1506 	br	20aec <___vfprintf_internal_r+0x138>
   21298:	21003fcc 	andi	r4,r4,255
   2129c:	20055e1e 	bne	r4,zero,22818 <___vfprintf_internal_r+0x1e64>
   212a0:	63000414 	ori	r12,r12,16
   212a4:	6080080c 	andi	r2,r12,32
   212a8:	103fbf1e 	bne	r2,zero,211a8 <___vfprintf_internal_r+0x7f4>
   212ac:	d8c00617 	ldw	r3,24(sp)
   212b0:	6080040c 	andi	r2,r12,16
   212b4:	1d000017 	ldw	r20,0(r3)
   212b8:	18c00104 	addi	r3,r3,4
   212bc:	d8c00615 	stw	r3,24(sp)
   212c0:	1002e91e 	bne	r2,zero,21e68 <___vfprintf_internal_r+0x14b4>
   212c4:	6080100c 	andi	r2,r12,64
   212c8:	1002e726 	beq	r2,zero,21e68 <___vfprintf_internal_r+0x14b4>
   212cc:	a53fffcc 	andi	r20,r20,65535
   212d0:	a520001c 	xori	r20,r20,32768
   212d4:	a5200004 	addi	r20,r20,-32768
   212d8:	a02bd7fa 	srai	r21,r20,31
   212dc:	a805883a 	mov	r2,r21
   212e0:	103fb80e 	bge	r2,zero,211c4 <___vfprintf_internal_r+0x810>
   212e4:	a004c03a 	cmpne	r2,r20,zero
   212e8:	056bc83a 	sub	r21,zero,r21
   212ec:	a8abc83a 	sub	r21,r21,r2
   212f0:	00800b44 	movi	r2,45
   212f4:	d8801345 	stb	r2,77(sp)
   212f8:	40ffffe0 	cmpeqi	r3,r8,-1
   212fc:	0529c83a 	sub	r20,zero,r20
   21300:	03400b44 	movi	r13,45
   21304:	00800044 	movi	r2,1
   21308:	183ef826 	beq	r3,zero,20eec <___vfprintf_internal_r+0x538>
   2130c:	10c00060 	cmpeqi	r3,r2,1
   21310:	183fb51e 	bne	r3,zero,211e8 <___vfprintf_internal_r+0x834>
   21314:	108000a0 	cmpeqi	r2,r2,2
   21318:	10015d1e 	bne	r2,zero,21890 <___vfprintf_internal_r+0xedc>
   2131c:	dc402704 	addi	r17,sp,156
   21320:	a006d0fa 	srli	r3,r20,3
   21324:	a808977a 	slli	r4,r21,29
   21328:	a82ad0fa 	srli	r21,r21,3
   2132c:	a50001cc 	andi	r20,r20,7
   21330:	a0800c04 	addi	r2,r20,48
   21334:	20e8b03a 	or	r20,r4,r3
   21338:	88bfffc5 	stb	r2,-1(r17)
   2133c:	a546b03a 	or	r3,r20,r21
   21340:	880b883a 	mov	r5,r17
   21344:	8c7fffc4 	addi	r17,r17,-1
   21348:	183ff51e 	bne	r3,zero,21320 <___vfprintf_internal_r+0x96c>
   2134c:	60c0004c 	andi	r3,r12,1
   21350:	18015c26 	beq	r3,zero,218c4 <___vfprintf_internal_r+0xf10>
   21354:	10803fcc 	andi	r2,r2,255
   21358:	1080201c 	xori	r2,r2,128
   2135c:	10bfe004 	addi	r2,r2,-128
   21360:	10800c18 	cmpnei	r2,r2,48
   21364:	10015726 	beq	r2,zero,218c4 <___vfprintf_internal_r+0xf10>
   21368:	00800c04 	movi	r2,48
   2136c:	297fff84 	addi	r5,r5,-2
   21370:	88bfffc5 	stb	r2,-1(r17)
   21374:	d8802704 	addi	r2,sp,156
   21378:	116bc83a 	sub	r21,r2,r5
   2137c:	db000415 	stw	r12,16(sp)
   21380:	2823883a 	mov	r17,r5
   21384:	003fa006 	br	21208 <___vfprintf_internal_r+0x854>
   21388:	bac00007 	ldb	r11,0(r23)
   2138c:	63002014 	ori	r12,r12,128
   21390:	003dd406 	br	20ae4 <___vfprintf_internal_r+0x130>
   21394:	bac00007 	ldb	r11,0(r23)
   21398:	01000044 	movi	r4,1
   2139c:	01400ac4 	movi	r5,43
   213a0:	003dd006 	br	20ae4 <___vfprintf_internal_r+0x130>
   213a4:	bac00007 	ldb	r11,0(r23)
   213a8:	63000054 	ori	r12,r12,1
   213ac:	003dcd06 	br	20ae4 <___vfprintf_internal_r+0x130>
   213b0:	28803fcc 	andi	r2,r5,255
   213b4:	1080201c 	xori	r2,r2,128
   213b8:	10bfe004 	addi	r2,r2,-128
   213bc:	bf000003 	ldbu	fp,0(r23)
   213c0:	10000c1e 	bne	r2,zero,213f4 <___vfprintf_internal_r+0xa40>
   213c4:	e2c03fcc 	andi	r11,fp,255
   213c8:	5ac0201c 	xori	r11,r11,128
   213cc:	01000044 	movi	r4,1
   213d0:	01400804 	movi	r5,32
   213d4:	5affe004 	addi	r11,r11,-128
   213d8:	003dc206 	br	20ae4 <___vfprintf_internal_r+0x130>
   213dc:	bac00007 	ldb	r11,0(r23)
   213e0:	58801b18 	cmpnei	r2,r11,108
   213e4:	1002a71e 	bne	r2,zero,21e84 <___vfprintf_internal_r+0x14d0>
   213e8:	bf000043 	ldbu	fp,1(r23)
   213ec:	63000814 	ori	r12,r12,32
   213f0:	bdc00044 	addi	r23,r23,1
   213f4:	e2c03fcc 	andi	r11,fp,255
   213f8:	5ac0201c 	xori	r11,r11,128
   213fc:	5affe004 	addi	r11,r11,-128
   21400:	003db806 	br	20ae4 <___vfprintf_internal_r+0x130>
   21404:	21003fcc 	andi	r4,r4,255
   21408:	20050b1e 	bne	r4,zero,22838 <___vfprintf_internal_r+0x1e84>
   2140c:	008000f4 	movhi	r2,3
   21410:	10bfd404 	addi	r2,r2,-176
   21414:	d8800c15 	stw	r2,48(sp)
   21418:	6080080c 	andi	r2,r12,32
   2141c:	10005b26 	beq	r2,zero,2158c <___vfprintf_internal_r+0xbd8>
   21420:	d8800617 	ldw	r2,24(sp)
   21424:	15000017 	ldw	r20,0(r2)
   21428:	15400117 	ldw	r21,4(r2)
   2142c:	10800204 	addi	r2,r2,8
   21430:	d8800615 	stw	r2,24(sp)
   21434:	6080004c 	andi	r2,r12,1
   21438:	10000226 	beq	r2,zero,21444 <___vfprintf_internal_r+0xa90>
   2143c:	a544b03a 	or	r2,r20,r21
   21440:	10029c1e 	bne	r2,zero,21eb4 <___vfprintf_internal_r+0x1500>
   21444:	00800084 	movi	r2,2
   21448:	003ea406 	br	20edc <___vfprintf_internal_r+0x528>
   2144c:	d8800617 	ldw	r2,24(sp)
   21450:	d8001345 	stb	zero,77(sp)
   21454:	14400017 	ldw	r17,0(r2)
   21458:	10c00104 	addi	r3,r2,4
   2145c:	8802ba26 	beq	r17,zero,21f48 <___vfprintf_internal_r+0x1594>
   21460:	40bfffe0 	cmpeqi	r2,r8,-1
   21464:	1003c61e 	bne	r2,zero,22380 <___vfprintf_internal_r+0x19cc>
   21468:	400d883a 	mov	r6,r8
   2146c:	000b883a 	mov	r5,zero
   21470:	8809883a 	mov	r4,r17
   21474:	d8c00715 	stw	r3,28(sp)
   21478:	db000615 	stw	r12,24(sp)
   2147c:	da000415 	stw	r8,16(sp)
   21480:	002600c0 	call	2600c <memchr>
   21484:	da000417 	ldw	r8,16(sp)
   21488:	db000617 	ldw	r12,24(sp)
   2148c:	d8c00717 	ldw	r3,28(sp)
   21490:	1004d126 	beq	r2,zero,227d8 <___vfprintf_internal_r+0x1e24>
   21494:	146bc83a 	sub	r21,r2,r17
   21498:	a829883a 	mov	r20,r21
   2149c:	d8c00615 	stw	r3,24(sp)
   214a0:	003e0706 	br	20cc0 <___vfprintf_internal_r+0x30c>
   214a4:	bac00007 	ldb	r11,0(r23)
   214a8:	63000814 	ori	r12,r12,32
   214ac:	003d8d06 	br	20ae4 <___vfprintf_internal_r+0x130>
   214b0:	d8c00617 	ldw	r3,24(sp)
   214b4:	00800c04 	movi	r2,48
   214b8:	d8801385 	stb	r2,78(sp)
   214bc:	00801e04 	movi	r2,120
   214c0:	010000f4 	movhi	r4,3
   214c4:	d88013c5 	stb	r2,79(sp)
   214c8:	18800104 	addi	r2,r3,4
   214cc:	d8800615 	stw	r2,24(sp)
   214d0:	20bfd404 	addi	r2,r4,-176
   214d4:	d8800c15 	stw	r2,48(sp)
   214d8:	1d000017 	ldw	r20,0(r3)
   214dc:	002b883a 	mov	r21,zero
   214e0:	63000094 	ori	r12,r12,2
   214e4:	00800084 	movi	r2,2
   214e8:	07001e04 	movi	fp,120
   214ec:	003e7b06 	br	20edc <___vfprintf_internal_r+0x528>
   214f0:	21003fcc 	andi	r4,r4,255
   214f4:	2004ca1e 	bne	r4,zero,22820 <___vfprintf_internal_r+0x1e6c>
   214f8:	d9000617 	ldw	r4,24(sp)
   214fc:	6080080c 	andi	r2,r12,32
   21500:	20c00104 	addi	r3,r4,4
   21504:	1002711e 	bne	r2,zero,21ecc <___vfprintf_internal_r+0x1518>
   21508:	6080040c 	andi	r2,r12,16
   2150c:	1002dc1e 	bne	r2,zero,22080 <___vfprintf_internal_r+0x16cc>
   21510:	6300100c 	andi	r12,r12,64
   21514:	6002da26 	beq	r12,zero,22080 <___vfprintf_internal_r+0x16cc>
   21518:	d8800617 	ldw	r2,24(sp)
   2151c:	d8c00615 	stw	r3,24(sp)
   21520:	d8c00517 	ldw	r3,20(sp)
   21524:	10800017 	ldw	r2,0(r2)
   21528:	10c0000d 	sth	r3,0(r2)
   2152c:	003d5506 	br	20a84 <___vfprintf_internal_r+0xd0>
   21530:	bac00007 	ldb	r11,0(r23)
   21534:	63000214 	ori	r12,r12,8
   21538:	003d6a06 	br	20ae4 <___vfprintf_internal_r+0x130>
   2153c:	bac00007 	ldb	r11,0(r23)
   21540:	63001014 	ori	r12,r12,64
   21544:	003d6706 	br	20ae4 <___vfprintf_internal_r+0x130>
   21548:	d8c00617 	ldw	r3,24(sp)
   2154c:	d8001345 	stb	zero,77(sp)
   21550:	05000044 	movi	r20,1
   21554:	18800017 	ldw	r2,0(r3)
   21558:	18c00104 	addi	r3,r3,4
   2155c:	d8c00615 	stw	r3,24(sp)
   21560:	d8801d05 	stb	r2,116(sp)
   21564:	05400044 	movi	r21,1
   21568:	dc401d04 	addi	r17,sp,116
   2156c:	003dd406 	br	20cc0 <___vfprintf_internal_r+0x30c>
   21570:	21003fcc 	andi	r4,r4,255
   21574:	2004b21e 	bne	r4,zero,22840 <___vfprintf_internal_r+0x1e8c>
   21578:	008000f4 	movhi	r2,3
   2157c:	10bfd904 	addi	r2,r2,-156
   21580:	d8800c15 	stw	r2,48(sp)
   21584:	6080080c 	andi	r2,r12,32
   21588:	103fa51e 	bne	r2,zero,21420 <___vfprintf_internal_r+0xa6c>
   2158c:	d8c00617 	ldw	r3,24(sp)
   21590:	6080040c 	andi	r2,r12,16
   21594:	1d000017 	ldw	r20,0(r3)
   21598:	18c00104 	addi	r3,r3,4
   2159c:	d8c00615 	stw	r3,24(sp)
   215a0:	10022f1e 	bne	r2,zero,21e60 <___vfprintf_internal_r+0x14ac>
   215a4:	6080100c 	andi	r2,r12,64
   215a8:	10022d26 	beq	r2,zero,21e60 <___vfprintf_internal_r+0x14ac>
   215ac:	a53fffcc 	andi	r20,r20,65535
   215b0:	002b883a 	mov	r21,zero
   215b4:	003f9f06 	br	21434 <___vfprintf_internal_r+0xa80>
   215b8:	e2c01990 	cmplti	r11,fp,102
   215bc:	5800fb1e 	bne	r11,zero,219ac <___vfprintf_internal_r+0xff8>
   215c0:	d9000917 	ldw	r4,36(sp)
   215c4:	d9400a17 	ldw	r5,40(sp)
   215c8:	000d883a 	mov	r6,zero
   215cc:	000f883a 	mov	r7,zero
   215d0:	d8c00e15 	stw	r3,56(sp)
   215d4:	002bff00 	call	2bff0 <__eqdf2>
   215d8:	d8c00e17 	ldw	r3,56(sp)
   215dc:	1001891e 	bne	r2,zero,21c04 <___vfprintf_internal_r+0x1250>
   215e0:	d8801b17 	ldw	r2,108(sp)
   215e4:	010000f4 	movhi	r4,3
   215e8:	213fe004 	addi	r4,r4,-128
   215ec:	10800044 	addi	r2,r2,1
   215f0:	18c00044 	addi	r3,r3,1
   215f4:	b1000015 	stw	r4,0(r22)
   215f8:	01000044 	movi	r4,1
   215fc:	d8801b15 	stw	r2,108(sp)
   21600:	b1000115 	stw	r4,4(r22)
   21604:	d8c01c15 	stw	r3,112(sp)
   21608:	10800208 	cmpgei	r2,r2,8
   2160c:	10034a1e 	bne	r2,zero,22338 <___vfprintf_internal_r+0x1984>
   21610:	b5800204 	addi	r22,r22,8
   21614:	d8801417 	ldw	r2,80(sp)
   21618:	d9000817 	ldw	r4,32(sp)
   2161c:	1102150e 	bge	r2,r4,21e74 <___vfprintf_internal_r+0x14c0>
   21620:	d8800d17 	ldw	r2,52(sp)
   21624:	d9000b17 	ldw	r4,44(sp)
   21628:	b0800015 	stw	r2,0(r22)
   2162c:	d8801b17 	ldw	r2,108(sp)
   21630:	1907883a 	add	r3,r3,r4
   21634:	b1000115 	stw	r4,4(r22)
   21638:	10800044 	addi	r2,r2,1
   2163c:	d8801b15 	stw	r2,108(sp)
   21640:	d8c01c15 	stw	r3,112(sp)
   21644:	10800208 	cmpgei	r2,r2,8
   21648:	1002371e 	bne	r2,zero,21f28 <___vfprintf_internal_r+0x1574>
   2164c:	b5800204 	addi	r22,r22,8
   21650:	d8800817 	ldw	r2,32(sp)
   21654:	157fffc4 	addi	r21,r2,-1
   21658:	057dd20e 	bge	zero,r21,20da4 <___vfprintf_internal_r+0x3f0>
   2165c:	01c000f4 	movhi	r7,3
   21660:	a9000450 	cmplti	r4,r21,17
   21664:	d8801b17 	ldw	r2,108(sp)
   21668:	39ffe104 	addi	r7,r7,-124
   2166c:	20032e1e 	bne	r4,zero,22328 <___vfprintf_internal_r+0x1974>
   21670:	07000404 	movi	fp,16
   21674:	3823883a 	mov	r17,r7
   21678:	00000406 	br	2168c <___vfprintf_internal_r+0xcd8>
   2167c:	b5800204 	addi	r22,r22,8
   21680:	ad7ffc04 	addi	r21,r21,-16
   21684:	a9000448 	cmpgei	r4,r21,17
   21688:	20032626 	beq	r4,zero,22324 <___vfprintf_internal_r+0x1970>
   2168c:	10800044 	addi	r2,r2,1
   21690:	18c00404 	addi	r3,r3,16
   21694:	b4400015 	stw	r17,0(r22)
   21698:	b7000115 	stw	fp,4(r22)
   2169c:	d8c01c15 	stw	r3,112(sp)
   216a0:	d8801b15 	stw	r2,108(sp)
   216a4:	11000208 	cmpgei	r4,r2,8
   216a8:	203ff426 	beq	r4,zero,2167c <___vfprintf_internal_r+0xcc8>
   216ac:	d9801a04 	addi	r6,sp,104
   216b0:	900b883a 	mov	r5,r18
   216b4:	9809883a 	mov	r4,r19
   216b8:	0027ecc0 	call	27ecc <__sprint_r>
   216bc:	103dca1e 	bne	r2,zero,20de8 <___vfprintf_internal_r+0x434>
   216c0:	d8c01c17 	ldw	r3,112(sp)
   216c4:	d8801b17 	ldw	r2,108(sp)
   216c8:	dd802704 	addi	r22,sp,156
   216cc:	003fec06 	br	21680 <___vfprintf_internal_r+0xccc>
   216d0:	8519c83a 	sub	r12,r16,r20
   216d4:	033da40e 	bge	zero,r12,20d68 <___vfprintf_internal_r+0x3b4>
   216d8:	01c000f4 	movhi	r7,3
   216dc:	61000450 	cmplti	r4,r12,17
   216e0:	d8801b17 	ldw	r2,108(sp)
   216e4:	39ffe104 	addi	r7,r7,-124
   216e8:	2000281e 	bne	r4,zero,2178c <___vfprintf_internal_r+0xdd8>
   216ec:	dc400e15 	stw	r17,56(sp)
   216f0:	dc000f15 	stw	r16,60(sp)
   216f4:	b009883a 	mov	r4,r22
   216f8:	03400404 	movi	r13,16
   216fc:	a02d883a 	mov	r22,r20
   21700:	6021883a 	mov	r16,r12
   21704:	4029883a 	mov	r20,r8
   21708:	3823883a 	mov	r17,r7
   2170c:	00000406 	br	21720 <___vfprintf_internal_r+0xd6c>
   21710:	843ffc04 	addi	r16,r16,-16
   21714:	81400448 	cmpgei	r5,r16,17
   21718:	21000204 	addi	r4,r4,8
   2171c:	28001426 	beq	r5,zero,21770 <___vfprintf_internal_r+0xdbc>
   21720:	10800044 	addi	r2,r2,1
   21724:	18c00404 	addi	r3,r3,16
   21728:	24400015 	stw	r17,0(r4)
   2172c:	23400115 	stw	r13,4(r4)
   21730:	d8c01c15 	stw	r3,112(sp)
   21734:	d8801b15 	stw	r2,108(sp)
   21738:	11400208 	cmpgei	r5,r2,8
   2173c:	283ff426 	beq	r5,zero,21710 <___vfprintf_internal_r+0xd5c>
   21740:	d9801a04 	addi	r6,sp,104
   21744:	900b883a 	mov	r5,r18
   21748:	9809883a 	mov	r4,r19
   2174c:	0027ecc0 	call	27ecc <__sprint_r>
   21750:	103da51e 	bne	r2,zero,20de8 <___vfprintf_internal_r+0x434>
   21754:	843ffc04 	addi	r16,r16,-16
   21758:	81400448 	cmpgei	r5,r16,17
   2175c:	d8c01c17 	ldw	r3,112(sp)
   21760:	d8801b17 	ldw	r2,108(sp)
   21764:	d9002704 	addi	r4,sp,156
   21768:	03400404 	movi	r13,16
   2176c:	283fec1e 	bne	r5,zero,21720 <___vfprintf_internal_r+0xd6c>
   21770:	8019883a 	mov	r12,r16
   21774:	880f883a 	mov	r7,r17
   21778:	dc000f17 	ldw	r16,60(sp)
   2177c:	dc400e17 	ldw	r17,56(sp)
   21780:	a011883a 	mov	r8,r20
   21784:	b029883a 	mov	r20,r22
   21788:	202d883a 	mov	r22,r4
   2178c:	10800044 	addi	r2,r2,1
   21790:	1b07883a 	add	r3,r3,r12
   21794:	d8801b15 	stw	r2,108(sp)
   21798:	b1c00015 	stw	r7,0(r22)
   2179c:	b3000115 	stw	r12,4(r22)
   217a0:	d8c01c15 	stw	r3,112(sp)
   217a4:	10800208 	cmpgei	r2,r2,8
   217a8:	1002eb1e 	bne	r2,zero,22358 <___vfprintf_internal_r+0x19a4>
   217ac:	4551c83a 	sub	r8,r8,r21
   217b0:	b5800204 	addi	r22,r22,8
   217b4:	023d6e0e 	bge	zero,r8,20d70 <___vfprintf_internal_r+0x3bc>
   217b8:	01c000f4 	movhi	r7,3
   217bc:	41000450 	cmplti	r4,r8,17
   217c0:	d8801b17 	ldw	r2,108(sp)
   217c4:	39ffe104 	addi	r7,r7,-124
   217c8:	2000221e 	bne	r4,zero,21854 <___vfprintf_internal_r+0xea0>
   217cc:	dc400e15 	stw	r17,56(sp)
   217d0:	dc000f15 	stw	r16,60(sp)
   217d4:	03000404 	movi	r12,16
   217d8:	4021883a 	mov	r16,r8
   217dc:	3823883a 	mov	r17,r7
   217e0:	00000406 	br	217f4 <___vfprintf_internal_r+0xe40>
   217e4:	843ffc04 	addi	r16,r16,-16
   217e8:	81000448 	cmpgei	r4,r16,17
   217ec:	b5800204 	addi	r22,r22,8
   217f0:	20001426 	beq	r4,zero,21844 <___vfprintf_internal_r+0xe90>
   217f4:	10800044 	addi	r2,r2,1
   217f8:	18c00404 	addi	r3,r3,16
   217fc:	b4400015 	stw	r17,0(r22)
   21800:	b3000115 	stw	r12,4(r22)
   21804:	d8c01c15 	stw	r3,112(sp)
   21808:	d8801b15 	stw	r2,108(sp)
   2180c:	11000208 	cmpgei	r4,r2,8
   21810:	203ff426 	beq	r4,zero,217e4 <___vfprintf_internal_r+0xe30>
   21814:	d9801a04 	addi	r6,sp,104
   21818:	900b883a 	mov	r5,r18
   2181c:	9809883a 	mov	r4,r19
   21820:	0027ecc0 	call	27ecc <__sprint_r>
   21824:	103d701e 	bne	r2,zero,20de8 <___vfprintf_internal_r+0x434>
   21828:	843ffc04 	addi	r16,r16,-16
   2182c:	81000448 	cmpgei	r4,r16,17
   21830:	d8c01c17 	ldw	r3,112(sp)
   21834:	d8801b17 	ldw	r2,108(sp)
   21838:	dd802704 	addi	r22,sp,156
   2183c:	03000404 	movi	r12,16
   21840:	203fec1e 	bne	r4,zero,217f4 <___vfprintf_internal_r+0xe40>
   21844:	8011883a 	mov	r8,r16
   21848:	880f883a 	mov	r7,r17
   2184c:	dc000f17 	ldw	r16,60(sp)
   21850:	dc400e17 	ldw	r17,56(sp)
   21854:	10800044 	addi	r2,r2,1
   21858:	1a07883a 	add	r3,r3,r8
   2185c:	d8801b15 	stw	r2,108(sp)
   21860:	b1c00015 	stw	r7,0(r22)
   21864:	b2000115 	stw	r8,4(r22)
   21868:	d8c01c15 	stw	r3,112(sp)
   2186c:	10800208 	cmpgei	r2,r2,8
   21870:	1001731e 	bne	r2,zero,21e40 <___vfprintf_internal_r+0x148c>
   21874:	b5800204 	addi	r22,r22,8
   21878:	003d3d06 	br	20d70 <___vfprintf_internal_r+0x3bc>
   2187c:	10c00060 	cmpeqi	r3,r2,1
   21880:	1803831e 	bne	r3,zero,22690 <___vfprintf_internal_r+0x1cdc>
   21884:	108000a0 	cmpeqi	r2,r2,2
   21888:	db000417 	ldw	r12,16(sp)
   2188c:	103ea326 	beq	r2,zero,2131c <___vfprintf_internal_r+0x968>
   21890:	d9000c17 	ldw	r4,48(sp)
   21894:	dc402704 	addi	r17,sp,156
   21898:	a08003cc 	andi	r2,r20,15
   2189c:	a806973a 	slli	r3,r21,28
   218a0:	a028d13a 	srli	r20,r20,4
   218a4:	2085883a 	add	r2,r4,r2
   218a8:	10800003 	ldbu	r2,0(r2)
   218ac:	a82ad13a 	srli	r21,r21,4
   218b0:	1d28b03a 	or	r20,r3,r20
   218b4:	88bfffc5 	stb	r2,-1(r17)
   218b8:	a544b03a 	or	r2,r20,r21
   218bc:	8c7fffc4 	addi	r17,r17,-1
   218c0:	103ff51e 	bne	r2,zero,21898 <___vfprintf_internal_r+0xee4>
   218c4:	d8802704 	addi	r2,sp,156
   218c8:	146bc83a 	sub	r21,r2,r17
   218cc:	db000415 	stw	r12,16(sp)
   218d0:	003e4d06 	br	21208 <___vfprintf_internal_r+0x854>
   218d4:	d9801a04 	addi	r6,sp,104
   218d8:	900b883a 	mov	r5,r18
   218dc:	9809883a 	mov	r4,r19
   218e0:	0027ecc0 	call	27ecc <__sprint_r>
   218e4:	103d3a26 	beq	r2,zero,20dd0 <___vfprintf_internal_r+0x41c>
   218e8:	003d3f06 	br	20de8 <___vfprintf_internal_r+0x434>
   218ec:	d8801b17 	ldw	r2,108(sp)
   218f0:	010000f4 	movhi	r4,3
   218f4:	213fe004 	addi	r4,r4,-128
   218f8:	10800044 	addi	r2,r2,1
   218fc:	18c00044 	addi	r3,r3,1
   21900:	b1000015 	stw	r4,0(r22)
   21904:	01000044 	movi	r4,1
   21908:	d8801b15 	stw	r2,108(sp)
   2190c:	b1000115 	stw	r4,4(r22)
   21910:	d8c01c15 	stw	r3,112(sp)
   21914:	10800208 	cmpgei	r2,r2,8
   21918:	1003211e 	bne	r2,zero,225a0 <___vfprintf_internal_r+0x1bec>
   2191c:	b5800204 	addi	r22,r22,8
   21920:	2802a51e 	bne	r5,zero,223b8 <___vfprintf_internal_r+0x1a04>
   21924:	d8800417 	ldw	r2,16(sp)
   21928:	d9000817 	ldw	r4,32(sp)
   2192c:	1080004c 	andi	r2,r2,1
   21930:	1104b03a 	or	r2,r2,r4
   21934:	103d1b26 	beq	r2,zero,20da4 <___vfprintf_internal_r+0x3f0>
   21938:	d8800d17 	ldw	r2,52(sp)
   2193c:	d9000b17 	ldw	r4,44(sp)
   21940:	b0800015 	stw	r2,0(r22)
   21944:	d8801b17 	ldw	r2,108(sp)
   21948:	20c7883a 	add	r3,r4,r3
   2194c:	b1000115 	stw	r4,4(r22)
   21950:	10800044 	addi	r2,r2,1
   21954:	d8c01c15 	stw	r3,112(sp)
   21958:	d8801b15 	stw	r2,108(sp)
   2195c:	11000208 	cmpgei	r4,r2,8
   21960:	2003381e 	bne	r4,zero,22644 <___vfprintf_internal_r+0x1c90>
   21964:	b5800204 	addi	r22,r22,8
   21968:	d9000817 	ldw	r4,32(sp)
   2196c:	10800044 	addi	r2,r2,1
   21970:	d8801b15 	stw	r2,108(sp)
   21974:	20c7883a 	add	r3,r4,r3
   21978:	b4400015 	stw	r17,0(r22)
   2197c:	b1000115 	stw	r4,4(r22)
   21980:	d8c01c15 	stw	r3,112(sp)
   21984:	10800208 	cmpgei	r2,r2,8
   21988:	103d0526 	beq	r2,zero,20da0 <___vfprintf_internal_r+0x3ec>
   2198c:	d9801a04 	addi	r6,sp,104
   21990:	900b883a 	mov	r5,r18
   21994:	9809883a 	mov	r4,r19
   21998:	0027ecc0 	call	27ecc <__sprint_r>
   2199c:	103d121e 	bne	r2,zero,20de8 <___vfprintf_internal_r+0x434>
   219a0:	d8c01c17 	ldw	r3,112(sp)
   219a4:	dd802704 	addi	r22,sp,156
   219a8:	003cfe06 	br	20da4 <___vfprintf_internal_r+0x3f0>
   219ac:	d8800817 	ldw	r2,32(sp)
   219b0:	dd401b17 	ldw	r21,108(sp)
   219b4:	18c00044 	addi	r3,r3,1
   219b8:	10800088 	cmpgei	r2,r2,2
   219bc:	ad400044 	addi	r21,r21,1
   219c0:	b7000204 	addi	fp,r22,8
   219c4:	1000e826 	beq	r2,zero,21d68 <___vfprintf_internal_r+0x13b4>
   219c8:	00800044 	movi	r2,1
   219cc:	b0800115 	stw	r2,4(r22)
   219d0:	b4400015 	stw	r17,0(r22)
   219d4:	d8c01c15 	stw	r3,112(sp)
   219d8:	dd401b15 	stw	r21,108(sp)
   219dc:	a8800210 	cmplti	r2,r21,8
   219e0:	1001ad26 	beq	r2,zero,22098 <___vfprintf_internal_r+0x16e4>
   219e4:	d8800b17 	ldw	r2,44(sp)
   219e8:	d9000d17 	ldw	r4,52(sp)
   219ec:	ad400044 	addi	r21,r21,1
   219f0:	1887883a 	add	r3,r3,r2
   219f4:	e0800115 	stw	r2,4(fp)
   219f8:	e1000015 	stw	r4,0(fp)
   219fc:	d8c01c15 	stw	r3,112(sp)
   21a00:	dd401b15 	stw	r21,108(sp)
   21a04:	a8800208 	cmpgei	r2,r21,8
   21a08:	1001ac1e 	bne	r2,zero,220bc <___vfprintf_internal_r+0x1708>
   21a0c:	e7000204 	addi	fp,fp,8
   21a10:	d9000917 	ldw	r4,36(sp)
   21a14:	d9400a17 	ldw	r5,40(sp)
   21a18:	000d883a 	mov	r6,zero
   21a1c:	000f883a 	mov	r7,zero
   21a20:	d8c00715 	stw	r3,28(sp)
   21a24:	002bff00 	call	2bff0 <__eqdf2>
   21a28:	d8c00817 	ldw	r3,32(sp)
   21a2c:	1dbfffc4 	addi	r22,r3,-1
   21a30:	d8c00717 	ldw	r3,28(sp)
   21a34:	1000e426 	beq	r2,zero,21dc8 <___vfprintf_internal_r+0x1414>
   21a38:	8a400044 	addi	r9,r17,1
   21a3c:	ad400044 	addi	r21,r21,1
   21a40:	1d87883a 	add	r3,r3,r22
   21a44:	e2400015 	stw	r9,0(fp)
   21a48:	e5800115 	stw	r22,4(fp)
   21a4c:	d8c01c15 	stw	r3,112(sp)
   21a50:	dd401b15 	stw	r21,108(sp)
   21a54:	a8800208 	cmpgei	r2,r21,8
   21a58:	1000cd1e 	bne	r2,zero,21d90 <___vfprintf_internal_r+0x13dc>
   21a5c:	e7000204 	addi	fp,fp,8
   21a60:	d9001017 	ldw	r4,64(sp)
   21a64:	ad400044 	addi	r21,r21,1
   21a68:	d8801644 	addi	r2,sp,89
   21a6c:	20c7883a 	add	r3,r4,r3
   21a70:	dd401b15 	stw	r21,108(sp)
   21a74:	e0800015 	stw	r2,0(fp)
   21a78:	e1000115 	stw	r4,4(fp)
   21a7c:	d8c01c15 	stw	r3,112(sp)
   21a80:	ad400208 	cmpgei	r21,r21,8
   21a84:	a83fc11e 	bne	r21,zero,2198c <___vfprintf_internal_r+0xfd8>
   21a88:	e5800204 	addi	r22,fp,8
   21a8c:	003cc506 	br	20da4 <___vfprintf_internal_r+0x3f0>
   21a90:	db000417 	ldw	r12,16(sp)
   21a94:	003e1d06 	br	2130c <___vfprintf_internal_r+0x958>
   21a98:	030000f4 	movhi	r12,3
   21a9c:	39000450 	cmplti	r4,r7,17
   21aa0:	d8801b17 	ldw	r2,108(sp)
   21aa4:	633fe504 	addi	r12,r12,-108
   21aa8:	2000321e 	bne	r4,zero,21b74 <___vfprintf_internal_r+0x11c0>
   21aac:	dc401115 	stw	r17,68(sp)
   21ab0:	b009883a 	mov	r4,r22
   21ab4:	9023883a 	mov	r17,r18
   21ab8:	a82d883a 	mov	r22,r21
   21abc:	ddc01215 	stw	r23,72(sp)
   21ac0:	03c00404 	movi	r15,16
   21ac4:	a02f883a 	mov	r23,r20
   21ac8:	db800e15 	stw	r14,56(sp)
   21acc:	8029883a 	mov	r20,r16
   21ad0:	db400f15 	stw	r13,60(sp)
   21ad4:	402b883a 	mov	r21,r8
   21ad8:	3821883a 	mov	r16,r7
   21adc:	6025883a 	mov	r18,r12
   21ae0:	00000406 	br	21af4 <___vfprintf_internal_r+0x1140>
   21ae4:	843ffc04 	addi	r16,r16,-16
   21ae8:	81800448 	cmpgei	r6,r16,17
   21aec:	21000204 	addi	r4,r4,8
   21af0:	30001426 	beq	r6,zero,21b44 <___vfprintf_internal_r+0x1190>
   21af4:	10800044 	addi	r2,r2,1
   21af8:	18c00404 	addi	r3,r3,16
   21afc:	24800015 	stw	r18,0(r4)
   21b00:	23c00115 	stw	r15,4(r4)
   21b04:	d8c01c15 	stw	r3,112(sp)
   21b08:	d8801b15 	stw	r2,108(sp)
   21b0c:	11800208 	cmpgei	r6,r2,8
   21b10:	303ff426 	beq	r6,zero,21ae4 <___vfprintf_internal_r+0x1130>
   21b14:	d9801a04 	addi	r6,sp,104
   21b18:	880b883a 	mov	r5,r17
   21b1c:	9809883a 	mov	r4,r19
   21b20:	0027ecc0 	call	27ecc <__sprint_r>
   21b24:	10017c1e 	bne	r2,zero,22118 <___vfprintf_internal_r+0x1764>
   21b28:	843ffc04 	addi	r16,r16,-16
   21b2c:	81800448 	cmpgei	r6,r16,17
   21b30:	d8c01c17 	ldw	r3,112(sp)
   21b34:	d8801b17 	ldw	r2,108(sp)
   21b38:	d9002704 	addi	r4,sp,156
   21b3c:	03c00404 	movi	r15,16
   21b40:	303fec1e 	bne	r6,zero,21af4 <___vfprintf_internal_r+0x1140>
   21b44:	800f883a 	mov	r7,r16
   21b48:	9019883a 	mov	r12,r18
   21b4c:	a021883a 	mov	r16,r20
   21b50:	8825883a 	mov	r18,r17
   21b54:	b829883a 	mov	r20,r23
   21b58:	db800e17 	ldw	r14,56(sp)
   21b5c:	db400f17 	ldw	r13,60(sp)
   21b60:	ddc01217 	ldw	r23,72(sp)
   21b64:	dc401117 	ldw	r17,68(sp)
   21b68:	a811883a 	mov	r8,r21
   21b6c:	b02b883a 	mov	r21,r22
   21b70:	202d883a 	mov	r22,r4
   21b74:	10800044 	addi	r2,r2,1
   21b78:	19c7883a 	add	r3,r3,r7
   21b7c:	d8801b15 	stw	r2,108(sp)
   21b80:	b3000015 	stw	r12,0(r22)
   21b84:	b1c00115 	stw	r7,4(r22)
   21b88:	d8c01c15 	stw	r3,112(sp)
   21b8c:	10800208 	cmpgei	r2,r2,8
   21b90:	1001531e 	bne	r2,zero,220e0 <___vfprintf_internal_r+0x172c>
   21b94:	b5800204 	addi	r22,r22,8
   21b98:	003c5606 	br	20cf4 <___vfprintf_internal_r+0x340>
   21b9c:	d9801a04 	addi	r6,sp,104
   21ba0:	900b883a 	mov	r5,r18
   21ba4:	9809883a 	mov	r4,r19
   21ba8:	da001115 	stw	r8,68(sp)
   21bac:	db400f15 	stw	r13,60(sp)
   21bb0:	db800e15 	stw	r14,56(sp)
   21bb4:	0027ecc0 	call	27ecc <__sprint_r>
   21bb8:	103c8b1e 	bne	r2,zero,20de8 <___vfprintf_internal_r+0x434>
   21bbc:	d8c01c17 	ldw	r3,112(sp)
   21bc0:	da001117 	ldw	r8,68(sp)
   21bc4:	db400f17 	ldw	r13,60(sp)
   21bc8:	db800e17 	ldw	r14,56(sp)
   21bcc:	dd802704 	addi	r22,sp,156
   21bd0:	003c5606 	br	20d2c <___vfprintf_internal_r+0x378>
   21bd4:	d9801a04 	addi	r6,sp,104
   21bd8:	900b883a 	mov	r5,r18
   21bdc:	9809883a 	mov	r4,r19
   21be0:	da000f15 	stw	r8,60(sp)
   21be4:	db400e15 	stw	r13,56(sp)
   21be8:	0027ecc0 	call	27ecc <__sprint_r>
   21bec:	103c7e1e 	bne	r2,zero,20de8 <___vfprintf_internal_r+0x434>
   21bf0:	d8c01c17 	ldw	r3,112(sp)
   21bf4:	da000f17 	ldw	r8,60(sp)
   21bf8:	db400e17 	ldw	r13,56(sp)
   21bfc:	dd802704 	addi	r22,sp,156
   21c00:	003c5706 	br	20d60 <___vfprintf_internal_r+0x3ac>
   21c04:	d9401417 	ldw	r5,80(sp)
   21c08:	017f380e 	bge	zero,r5,218ec <___vfprintf_internal_r+0xf38>
   21c0c:	d8800717 	ldw	r2,28(sp)
   21c10:	d9000817 	ldw	r4,32(sp)
   21c14:	102b883a 	mov	r21,r2
   21c18:	2080b316 	blt	r4,r2,21ee8 <___vfprintf_internal_r+0x1534>
   21c1c:	05400a0e 	bge	zero,r21,21c48 <___vfprintf_internal_r+0x1294>
   21c20:	d8801b17 	ldw	r2,108(sp)
   21c24:	1d47883a 	add	r3,r3,r21
   21c28:	b4400015 	stw	r17,0(r22)
   21c2c:	10800044 	addi	r2,r2,1
   21c30:	d8801b15 	stw	r2,108(sp)
   21c34:	b5400115 	stw	r21,4(r22)
   21c38:	d8c01c15 	stw	r3,112(sp)
   21c3c:	10800208 	cmpgei	r2,r2,8
   21c40:	1002cf1e 	bne	r2,zero,22780 <___vfprintf_internal_r+0x1dcc>
   21c44:	b5800204 	addi	r22,r22,8
   21c48:	a800b516 	blt	r21,zero,21f20 <___vfprintf_internal_r+0x156c>
   21c4c:	d8800717 	ldw	r2,28(sp)
   21c50:	156bc83a 	sub	r21,r2,r21
   21c54:	0540c416 	blt	zero,r21,21f68 <___vfprintf_internal_r+0x15b4>
   21c58:	dd401417 	ldw	r21,80(sp)
   21c5c:	d8800817 	ldw	r2,32(sp)
   21c60:	a880a40e 	bge	r21,r2,21ef4 <___vfprintf_internal_r+0x1540>
   21c64:	d8800d17 	ldw	r2,52(sp)
   21c68:	d9000b17 	ldw	r4,44(sp)
   21c6c:	b0800015 	stw	r2,0(r22)
   21c70:	d8801b17 	ldw	r2,108(sp)
   21c74:	1907883a 	add	r3,r3,r4
   21c78:	b1000115 	stw	r4,4(r22)
   21c7c:	10800044 	addi	r2,r2,1
   21c80:	d8801b15 	stw	r2,108(sp)
   21c84:	d8c01c15 	stw	r3,112(sp)
   21c88:	10800208 	cmpgei	r2,r2,8
   21c8c:	1002b31e 	bne	r2,zero,2275c <___vfprintf_internal_r+0x1da8>
   21c90:	b5800204 	addi	r22,r22,8
   21c94:	d9000817 	ldw	r4,32(sp)
   21c98:	d9400717 	ldw	r5,28(sp)
   21c9c:	2545c83a 	sub	r2,r4,r21
   21ca0:	2149c83a 	sub	r4,r4,r5
   21ca4:	102b883a 	mov	r21,r2
   21ca8:	2080010e 	bge	r4,r2,21cb0 <___vfprintf_internal_r+0x12fc>
   21cac:	202b883a 	mov	r21,r4
   21cb0:	05400c0e 	bge	zero,r21,21ce4 <___vfprintf_internal_r+0x1330>
   21cb4:	d9000717 	ldw	r4,28(sp)
   21cb8:	1d47883a 	add	r3,r3,r21
   21cbc:	b5400115 	stw	r21,4(r22)
   21cc0:	8913883a 	add	r9,r17,r4
   21cc4:	d9001b17 	ldw	r4,108(sp)
   21cc8:	b2400015 	stw	r9,0(r22)
   21ccc:	d8c01c15 	stw	r3,112(sp)
   21cd0:	21000044 	addi	r4,r4,1
   21cd4:	d9001b15 	stw	r4,108(sp)
   21cd8:	21000208 	cmpgei	r4,r4,8
   21cdc:	2002b31e 	bne	r4,zero,227ac <___vfprintf_internal_r+0x1df8>
   21ce0:	b5800204 	addi	r22,r22,8
   21ce4:	a800010e 	bge	r21,zero,21cec <___vfprintf_internal_r+0x1338>
   21ce8:	002b883a 	mov	r21,zero
   21cec:	156bc83a 	sub	r21,r2,r21
   21cf0:	057c2c0e 	bge	zero,r21,20da4 <___vfprintf_internal_r+0x3f0>
   21cf4:	01c000f4 	movhi	r7,3
   21cf8:	a9000450 	cmplti	r4,r21,17
   21cfc:	d8801b17 	ldw	r2,108(sp)
   21d00:	39ffe104 	addi	r7,r7,-124
   21d04:	2001881e 	bne	r4,zero,22328 <___vfprintf_internal_r+0x1974>
   21d08:	07000404 	movi	fp,16
   21d0c:	3823883a 	mov	r17,r7
   21d10:	00000406 	br	21d24 <___vfprintf_internal_r+0x1370>
   21d14:	b5800204 	addi	r22,r22,8
   21d18:	ad7ffc04 	addi	r21,r21,-16
   21d1c:	a9000448 	cmpgei	r4,r21,17
   21d20:	20018026 	beq	r4,zero,22324 <___vfprintf_internal_r+0x1970>
   21d24:	10800044 	addi	r2,r2,1
   21d28:	18c00404 	addi	r3,r3,16
   21d2c:	b4400015 	stw	r17,0(r22)
   21d30:	b7000115 	stw	fp,4(r22)
   21d34:	d8c01c15 	stw	r3,112(sp)
   21d38:	d8801b15 	stw	r2,108(sp)
   21d3c:	11000208 	cmpgei	r4,r2,8
   21d40:	203ff426 	beq	r4,zero,21d14 <___vfprintf_internal_r+0x1360>
   21d44:	d9801a04 	addi	r6,sp,104
   21d48:	900b883a 	mov	r5,r18
   21d4c:	9809883a 	mov	r4,r19
   21d50:	0027ecc0 	call	27ecc <__sprint_r>
   21d54:	103c241e 	bne	r2,zero,20de8 <___vfprintf_internal_r+0x434>
   21d58:	d8c01c17 	ldw	r3,112(sp)
   21d5c:	d8801b17 	ldw	r2,108(sp)
   21d60:	dd802704 	addi	r22,sp,156
   21d64:	003fec06 	br	21d18 <___vfprintf_internal_r+0x1364>
   21d68:	d8800417 	ldw	r2,16(sp)
   21d6c:	1080004c 	andi	r2,r2,1
   21d70:	103f151e 	bne	r2,zero,219c8 <___vfprintf_internal_r+0x1014>
   21d74:	00800044 	movi	r2,1
   21d78:	b0800115 	stw	r2,4(r22)
   21d7c:	b4400015 	stw	r17,0(r22)
   21d80:	d8c01c15 	stw	r3,112(sp)
   21d84:	dd401b15 	stw	r21,108(sp)
   21d88:	a8800210 	cmplti	r2,r21,8
   21d8c:	103f341e 	bne	r2,zero,21a60 <___vfprintf_internal_r+0x10ac>
   21d90:	d9801a04 	addi	r6,sp,104
   21d94:	900b883a 	mov	r5,r18
   21d98:	9809883a 	mov	r4,r19
   21d9c:	0027ecc0 	call	27ecc <__sprint_r>
   21da0:	103c111e 	bne	r2,zero,20de8 <___vfprintf_internal_r+0x434>
   21da4:	d8c01c17 	ldw	r3,112(sp)
   21da8:	dd401b17 	ldw	r21,108(sp)
   21dac:	df002704 	addi	fp,sp,156
   21db0:	003f2b06 	br	21a60 <___vfprintf_internal_r+0x10ac>
   21db4:	4002361e 	bne	r8,zero,22690 <___vfprintf_internal_r+0x1cdc>
   21db8:	0011883a 	mov	r8,zero
   21dbc:	002b883a 	mov	r21,zero
   21dc0:	dc402704 	addi	r17,sp,156
   21dc4:	003d1006 	br	21208 <___vfprintf_internal_r+0x854>
   21dc8:	05bf250e 	bge	zero,r22,21a60 <___vfprintf_internal_r+0x10ac>
   21dcc:	01c000f4 	movhi	r7,3
   21dd0:	b0800450 	cmplti	r2,r22,17
   21dd4:	39ffe104 	addi	r7,r7,-124
   21dd8:	1001731e 	bne	r2,zero,223a8 <___vfprintf_internal_r+0x19f4>
   21ddc:	dc000715 	stw	r16,28(sp)
   21de0:	04400404 	movi	r17,16
   21de4:	3821883a 	mov	r16,r7
   21de8:	00000406 	br	21dfc <___vfprintf_internal_r+0x1448>
   21dec:	e7000204 	addi	fp,fp,8
   21df0:	b5bffc04 	addi	r22,r22,-16
   21df4:	b0800448 	cmpgei	r2,r22,17
   21df8:	10016926 	beq	r2,zero,223a0 <___vfprintf_internal_r+0x19ec>
   21dfc:	ad400044 	addi	r21,r21,1
   21e00:	18c00404 	addi	r3,r3,16
   21e04:	e4000015 	stw	r16,0(fp)
   21e08:	e4400115 	stw	r17,4(fp)
   21e0c:	d8c01c15 	stw	r3,112(sp)
   21e10:	dd401b15 	stw	r21,108(sp)
   21e14:	a8800208 	cmpgei	r2,r21,8
   21e18:	103ff426 	beq	r2,zero,21dec <___vfprintf_internal_r+0x1438>
   21e1c:	d9801a04 	addi	r6,sp,104
   21e20:	900b883a 	mov	r5,r18
   21e24:	9809883a 	mov	r4,r19
   21e28:	0027ecc0 	call	27ecc <__sprint_r>
   21e2c:	103bee1e 	bne	r2,zero,20de8 <___vfprintf_internal_r+0x434>
   21e30:	d8c01c17 	ldw	r3,112(sp)
   21e34:	dd401b17 	ldw	r21,108(sp)
   21e38:	df002704 	addi	fp,sp,156
   21e3c:	003fec06 	br	21df0 <___vfprintf_internal_r+0x143c>
   21e40:	d9801a04 	addi	r6,sp,104
   21e44:	900b883a 	mov	r5,r18
   21e48:	9809883a 	mov	r4,r19
   21e4c:	0027ecc0 	call	27ecc <__sprint_r>
   21e50:	103be51e 	bne	r2,zero,20de8 <___vfprintf_internal_r+0x434>
   21e54:	d8c01c17 	ldw	r3,112(sp)
   21e58:	dd802704 	addi	r22,sp,156
   21e5c:	003bc406 	br	20d70 <___vfprintf_internal_r+0x3bc>
   21e60:	002b883a 	mov	r21,zero
   21e64:	003d7306 	br	21434 <___vfprintf_internal_r+0xa80>
   21e68:	a02bd7fa 	srai	r21,r20,31
   21e6c:	a805883a 	mov	r2,r21
   21e70:	003cd306 	br	211c0 <___vfprintf_internal_r+0x80c>
   21e74:	d8800417 	ldw	r2,16(sp)
   21e78:	1080004c 	andi	r2,r2,1
   21e7c:	103bc926 	beq	r2,zero,20da4 <___vfprintf_internal_r+0x3f0>
   21e80:	003de706 	br	21620 <___vfprintf_internal_r+0xc6c>
   21e84:	63000414 	ori	r12,r12,16
   21e88:	003b1606 	br	20ae4 <___vfprintf_internal_r+0x130>
   21e8c:	bac00007 	ldb	r11,0(r23)
   21e90:	d8800615 	stw	r2,24(sp)
   21e94:	003b1306 	br	20ae4 <___vfprintf_internal_r+0x130>
   21e98:	dc402704 	addi	r17,sp,156
   21e9c:	003cda06 	br	21208 <___vfprintf_internal_r+0x854>
   21ea0:	18800017 	ldw	r2,0(r3)
   21ea4:	d8800915 	stw	r2,36(sp)
   21ea8:	18800117 	ldw	r2,4(r3)
   21eac:	d8800a15 	stw	r2,40(sp)
   21eb0:	003c4006 	br	20fb4 <___vfprintf_internal_r+0x600>
   21eb4:	00800c04 	movi	r2,48
   21eb8:	d8801385 	stb	r2,78(sp)
   21ebc:	df0013c5 	stb	fp,79(sp)
   21ec0:	63000094 	ori	r12,r12,2
   21ec4:	00800084 	movi	r2,2
   21ec8:	003c0406 	br	20edc <___vfprintf_internal_r+0x528>
   21ecc:	d9400517 	ldw	r5,20(sp)
   21ed0:	20800017 	ldw	r2,0(r4)
   21ed4:	d8c00615 	stw	r3,24(sp)
   21ed8:	2809d7fa 	srai	r4,r5,31
   21edc:	11400015 	stw	r5,0(r2)
   21ee0:	11000115 	stw	r4,4(r2)
   21ee4:	003ae706 	br	20a84 <___vfprintf_internal_r+0xd0>
   21ee8:	202b883a 	mov	r21,r4
   21eec:	057f4c16 	blt	zero,r21,21c20 <___vfprintf_internal_r+0x126c>
   21ef0:	003f5506 	br	21c48 <___vfprintf_internal_r+0x1294>
   21ef4:	d8800417 	ldw	r2,16(sp)
   21ef8:	1080004c 	andi	r2,r2,1
   21efc:	103f591e 	bne	r2,zero,21c64 <___vfprintf_internal_r+0x12b0>
   21f00:	d9000817 	ldw	r4,32(sp)
   21f04:	d9400717 	ldw	r5,28(sp)
   21f08:	2545c83a 	sub	r2,r4,r21
   21f0c:	2179c83a 	sub	fp,r4,r5
   21f10:	102b883a 	mov	r21,r2
   21f14:	e0bf730e 	bge	fp,r2,21ce4 <___vfprintf_internal_r+0x1330>
   21f18:	e02b883a 	mov	r21,fp
   21f1c:	003f7106 	br	21ce4 <___vfprintf_internal_r+0x1330>
   21f20:	002b883a 	mov	r21,zero
   21f24:	003f4906 	br	21c4c <___vfprintf_internal_r+0x1298>
   21f28:	d9801a04 	addi	r6,sp,104
   21f2c:	900b883a 	mov	r5,r18
   21f30:	9809883a 	mov	r4,r19
   21f34:	0027ecc0 	call	27ecc <__sprint_r>
   21f38:	103bab1e 	bne	r2,zero,20de8 <___vfprintf_internal_r+0x434>
   21f3c:	d8c01c17 	ldw	r3,112(sp)
   21f40:	dd802704 	addi	r22,sp,156
   21f44:	003dc206 	br	21650 <___vfprintf_internal_r+0xc9c>
   21f48:	408001f0 	cmpltui	r2,r8,7
   21f4c:	402b883a 	mov	r21,r8
   21f50:	1001a026 	beq	r2,zero,225d4 <___vfprintf_internal_r+0x1c20>
   21f54:	044000f4 	movhi	r17,3
   21f58:	a829883a 	mov	r20,r21
   21f5c:	d8c00615 	stw	r3,24(sp)
   21f60:	8c7fde04 	addi	r17,r17,-136
   21f64:	003b5606 	br	20cc0 <___vfprintf_internal_r+0x30c>
   21f68:	01c000f4 	movhi	r7,3
   21f6c:	a9000450 	cmplti	r4,r21,17
   21f70:	d8801b17 	ldw	r2,108(sp)
   21f74:	39ffe104 	addi	r7,r7,-124
   21f78:	20017b1e 	bne	r4,zero,22568 <___vfprintf_internal_r+0x1bb4>
   21f7c:	dc000e15 	stw	r16,56(sp)
   21f80:	07000404 	movi	fp,16
   21f84:	3821883a 	mov	r16,r7
   21f88:	00000406 	br	21f9c <___vfprintf_internal_r+0x15e8>
   21f8c:	b5800204 	addi	r22,r22,8
   21f90:	ad7ffc04 	addi	r21,r21,-16
   21f94:	a9000448 	cmpgei	r4,r21,17
   21f98:	20017126 	beq	r4,zero,22560 <___vfprintf_internal_r+0x1bac>
   21f9c:	10800044 	addi	r2,r2,1
   21fa0:	18c00404 	addi	r3,r3,16
   21fa4:	b4000015 	stw	r16,0(r22)
   21fa8:	b7000115 	stw	fp,4(r22)
   21fac:	d8c01c15 	stw	r3,112(sp)
   21fb0:	d8801b15 	stw	r2,108(sp)
   21fb4:	11000208 	cmpgei	r4,r2,8
   21fb8:	203ff426 	beq	r4,zero,21f8c <___vfprintf_internal_r+0x15d8>
   21fbc:	d9801a04 	addi	r6,sp,104
   21fc0:	900b883a 	mov	r5,r18
   21fc4:	9809883a 	mov	r4,r19
   21fc8:	0027ecc0 	call	27ecc <__sprint_r>
   21fcc:	103b861e 	bne	r2,zero,20de8 <___vfprintf_internal_r+0x434>
   21fd0:	d8c01c17 	ldw	r3,112(sp)
   21fd4:	d8801b17 	ldw	r2,108(sp)
   21fd8:	dd802704 	addi	r22,sp,156
   21fdc:	003fec06 	br	21f90 <___vfprintf_internal_r+0x15dc>
   21fe0:	dc402704 	addi	r17,sp,156
   21fe4:	a805883a 	mov	r2,r21
   21fe8:	dc000715 	stw	r16,28(sp)
   21fec:	902b883a 	mov	r21,r18
   21ff0:	8821883a 	mov	r16,r17
   21ff4:	db000415 	stw	r12,16(sp)
   21ff8:	a023883a 	mov	r17,r20
   21ffc:	da000e15 	stw	r8,56(sp)
   22000:	9829883a 	mov	r20,r19
   22004:	1025883a 	mov	r18,r2
   22008:	6827883a 	mov	r19,r13
   2200c:	8809883a 	mov	r4,r17
   22010:	900b883a 	mov	r5,r18
   22014:	01800284 	movi	r6,10
   22018:	000f883a 	mov	r7,zero
   2201c:	002a97c0 	call	2a97c <__umoddi3>
   22020:	10800c04 	addi	r2,r2,48
   22024:	8809883a 	mov	r4,r17
   22028:	900b883a 	mov	r5,r18
   2202c:	01800284 	movi	r6,10
   22030:	000f883a 	mov	r7,zero
   22034:	80bfffc5 	stb	r2,-1(r16)
   22038:	002a3ec0 	call	2a3ec <__udivdi3>
   2203c:	900d883a 	mov	r6,r18
   22040:	880f883a 	mov	r7,r17
   22044:	843fffc4 	addi	r16,r16,-1
   22048:	1023883a 	mov	r17,r2
   2204c:	1825883a 	mov	r18,r3
   22050:	303fee1e 	bne	r6,zero,2200c <___vfprintf_internal_r+0x1658>
   22054:	39c002a8 	cmpgeui	r7,r7,10
   22058:	383fec1e 	bne	r7,zero,2200c <___vfprintf_internal_r+0x1658>
   2205c:	8023883a 	mov	r17,r16
   22060:	d8802704 	addi	r2,sp,156
   22064:	981b883a 	mov	r13,r19
   22068:	a825883a 	mov	r18,r21
   2206c:	dc000717 	ldw	r16,28(sp)
   22070:	da000e17 	ldw	r8,56(sp)
   22074:	a027883a 	mov	r19,r20
   22078:	146bc83a 	sub	r21,r2,r17
   2207c:	003c6206 	br	21208 <___vfprintf_internal_r+0x854>
   22080:	d8800617 	ldw	r2,24(sp)
   22084:	10800017 	ldw	r2,0(r2)
   22088:	d8c00615 	stw	r3,24(sp)
   2208c:	d8c00517 	ldw	r3,20(sp)
   22090:	10c00015 	stw	r3,0(r2)
   22094:	003a7b06 	br	20a84 <___vfprintf_internal_r+0xd0>
   22098:	d9801a04 	addi	r6,sp,104
   2209c:	900b883a 	mov	r5,r18
   220a0:	9809883a 	mov	r4,r19
   220a4:	0027ecc0 	call	27ecc <__sprint_r>
   220a8:	103b4f1e 	bne	r2,zero,20de8 <___vfprintf_internal_r+0x434>
   220ac:	d8c01c17 	ldw	r3,112(sp)
   220b0:	dd401b17 	ldw	r21,108(sp)
   220b4:	df002704 	addi	fp,sp,156
   220b8:	003e4a06 	br	219e4 <___vfprintf_internal_r+0x1030>
   220bc:	d9801a04 	addi	r6,sp,104
   220c0:	900b883a 	mov	r5,r18
   220c4:	9809883a 	mov	r4,r19
   220c8:	0027ecc0 	call	27ecc <__sprint_r>
   220cc:	103b461e 	bne	r2,zero,20de8 <___vfprintf_internal_r+0x434>
   220d0:	d8c01c17 	ldw	r3,112(sp)
   220d4:	dd401b17 	ldw	r21,108(sp)
   220d8:	df002704 	addi	fp,sp,156
   220dc:	003e4c06 	br	21a10 <___vfprintf_internal_r+0x105c>
   220e0:	d9801a04 	addi	r6,sp,104
   220e4:	900b883a 	mov	r5,r18
   220e8:	9809883a 	mov	r4,r19
   220ec:	da001115 	stw	r8,68(sp)
   220f0:	db400f15 	stw	r13,60(sp)
   220f4:	db800e15 	stw	r14,56(sp)
   220f8:	0027ecc0 	call	27ecc <__sprint_r>
   220fc:	103b3a1e 	bne	r2,zero,20de8 <___vfprintf_internal_r+0x434>
   22100:	d8c01c17 	ldw	r3,112(sp)
   22104:	da001117 	ldw	r8,68(sp)
   22108:	db400f17 	ldw	r13,60(sp)
   2210c:	db800e17 	ldw	r14,56(sp)
   22110:	dd802704 	addi	r22,sp,156
   22114:	003af706 	br	20cf4 <___vfprintf_internal_r+0x340>
   22118:	8825883a 	mov	r18,r17
   2211c:	003b3206 	br	20de8 <___vfprintf_internal_r+0x434>
   22120:	d9000917 	ldw	r4,36(sp)
   22124:	d9400a17 	ldw	r5,40(sp)
   22128:	da000615 	stw	r8,24(sp)
   2212c:	200d883a 	mov	r6,r4
   22130:	280f883a 	mov	r7,r5
   22134:	db000415 	stw	r12,16(sp)
   22138:	002d1c00 	call	2d1c0 <__unorddf2>
   2213c:	db000417 	ldw	r12,16(sp)
   22140:	da000617 	ldw	r8,24(sp)
   22144:	1001f51e 	bne	r2,zero,2291c <___vfprintf_internal_r+0x1f68>
   22148:	057ff7c4 	movi	r21,-33
   2214c:	40bfffe0 	cmpeqi	r2,r8,-1
   22150:	e56a703a 	and	r21,fp,r21
   22154:	1001931e 	bne	r2,zero,227a4 <___vfprintf_internal_r+0x1df0>
   22158:	a88011d8 	cmpnei	r2,r21,71
   2215c:	10013626 	beq	r2,zero,22638 <___vfprintf_internal_r+0x1c84>
   22160:	60804014 	ori	r2,r12,256
   22164:	d8800415 	stw	r2,16(sp)
   22168:	d8800a17 	ldw	r2,40(sp)
   2216c:	10011516 	blt	r2,zero,225c4 <___vfprintf_internal_r+0x1c10>
   22170:	dd000a17 	ldw	r20,40(sp)
   22174:	d8000605 	stb	zero,24(sp)
   22178:	e08019a0 	cmpeqi	r2,fp,102
   2217c:	d8800f15 	stw	r2,60(sp)
   22180:	1000b91e 	bne	r2,zero,22468 <___vfprintf_internal_r+0x1ab4>
   22184:	e08011a0 	cmpeqi	r2,fp,70
   22188:	1000b71e 	bne	r2,zero,22468 <___vfprintf_internal_r+0x1ab4>
   2218c:	a8801158 	cmpnei	r2,r21,69
   22190:	10014126 	beq	r2,zero,22698 <___vfprintf_internal_r+0x1ce4>
   22194:	d8801804 	addi	r2,sp,96
   22198:	d8800315 	stw	r2,12(sp)
   2219c:	d9400917 	ldw	r5,36(sp)
   221a0:	d8801504 	addi	r2,sp,84
   221a4:	d8800215 	stw	r2,8(sp)
   221a8:	d8801404 	addi	r2,sp,80
   221ac:	da000015 	stw	r8,0(sp)
   221b0:	9809883a 	mov	r4,r19
   221b4:	d8800115 	stw	r2,4(sp)
   221b8:	01c00084 	movi	r7,2
   221bc:	a00d883a 	mov	r6,r20
   221c0:	db000815 	stw	r12,32(sp)
   221c4:	da000715 	stw	r8,28(sp)
   221c8:	0022df80 	call	22df8 <_dtoa_r>
   221cc:	da000717 	ldw	r8,28(sp)
   221d0:	e10019d8 	cmpnei	r4,fp,103
   221d4:	db000817 	ldw	r12,32(sp)
   221d8:	1023883a 	mov	r17,r2
   221dc:	4007883a 	mov	r3,r8
   221e0:	2001411e 	bne	r4,zero,226e8 <___vfprintf_internal_r+0x1d34>
   221e4:	6080004c 	andi	r2,r12,1
   221e8:	1001411e 	bne	r2,zero,226f0 <___vfprintf_internal_r+0x1d3c>
   221ec:	d8801417 	ldw	r2,80(sp)
   221f0:	ad4011e0 	cmpeqi	r21,r21,71
   221f4:	d8800715 	stw	r2,28(sp)
   221f8:	d8801817 	ldw	r2,96(sp)
   221fc:	1445c83a 	sub	r2,r2,r17
   22200:	d8800815 	stw	r2,32(sp)
   22204:	a8000526 	beq	r21,zero,2221c <___vfprintf_internal_r+0x1868>
   22208:	d8c00717 	ldw	r3,28(sp)
   2220c:	18bfff50 	cmplti	r2,r3,-3
   22210:	1000011e 	bne	r2,zero,22218 <___vfprintf_internal_r+0x1864>
   22214:	40c1460e 	bge	r8,r3,22730 <___vfprintf_internal_r+0x1d7c>
   22218:	e73fff84 	addi	fp,fp,-2
   2221c:	d8800717 	ldw	r2,28(sp)
   22220:	df001645 	stb	fp,89(sp)
   22224:	157fffc4 	addi	r21,r2,-1
   22228:	dd401415 	stw	r21,80(sp)
   2222c:	a801ab16 	blt	r21,zero,228dc <___vfprintf_internal_r+0x1f28>
   22230:	00800ac4 	movi	r2,43
   22234:	d8801685 	stb	r2,90(sp)
   22238:	a8800290 	cmplti	r2,r21,10
   2223c:	1001a01e 	bne	r2,zero,228c0 <___vfprintf_internal_r+0x1f0c>
   22240:	d98019c4 	addi	r6,sp,103
   22244:	9029883a 	mov	r20,r18
   22248:	dc400715 	stw	r17,28(sp)
   2224c:	8025883a 	mov	r18,r16
   22250:	db000f15 	stw	r12,60(sp)
   22254:	3021883a 	mov	r16,r6
   22258:	a809883a 	mov	r4,r21
   2225c:	01400284 	movi	r5,10
   22260:	00206840 	call	20684 <__modsi3>
   22264:	10800c04 	addi	r2,r2,48
   22268:	a809883a 	mov	r4,r21
   2226c:	80bfffc5 	stb	r2,-1(r16)
   22270:	01400284 	movi	r5,10
   22274:	00206040 	call	20604 <__divsi3>
   22278:	a9001908 	cmpgei	r4,r21,100
   2227c:	8023883a 	mov	r17,r16
   22280:	102b883a 	mov	r21,r2
   22284:	843fffc4 	addi	r16,r16,-1
   22288:	203ff31e 	bne	r4,zero,22258 <___vfprintf_internal_r+0x18a4>
   2228c:	800d883a 	mov	r6,r16
   22290:	11000c04 	addi	r4,r2,48
   22294:	9021883a 	mov	r16,r18
   22298:	a025883a 	mov	r18,r20
   2229c:	8829883a 	mov	r20,r17
   222a0:	a0bfff84 	addi	r2,r20,-2
   222a4:	313fffc5 	stb	r4,-1(r6)
   222a8:	d8c019c4 	addi	r3,sp,103
   222ac:	db000f17 	ldw	r12,60(sp)
   222b0:	dc400717 	ldw	r17,28(sp)
   222b4:	10c1be2e 	bgeu	r2,r3,229b0 <___vfprintf_internal_r+0x1ffc>
   222b8:	d8c016c4 	addi	r3,sp,91
   222bc:	00000106 	br	222c4 <___vfprintf_internal_r+0x1910>
   222c0:	11000003 	ldbu	r4,0(r2)
   222c4:	19000005 	stb	r4,0(r3)
   222c8:	10800044 	addi	r2,r2,1
   222cc:	d90019c4 	addi	r4,sp,103
   222d0:	18c00044 	addi	r3,r3,1
   222d4:	113ffa1e 	bne	r2,r4,222c0 <___vfprintf_internal_r+0x190c>
   222d8:	d8801a44 	addi	r2,sp,105
   222dc:	d8c016c4 	addi	r3,sp,91
   222e0:	1505c83a 	sub	r2,r2,r20
   222e4:	1885883a 	add	r2,r3,r2
   222e8:	d8c01644 	addi	r3,sp,89
   222ec:	10c5c83a 	sub	r2,r2,r3
   222f0:	d8801015 	stw	r2,64(sp)
   222f4:	d8c00817 	ldw	r3,32(sp)
   222f8:	d9001017 	ldw	r4,64(sp)
   222fc:	18800088 	cmpgei	r2,r3,2
   22300:	192b883a 	add	r21,r3,r4
   22304:	10018126 	beq	r2,zero,2290c <___vfprintf_internal_r+0x1f58>
   22308:	d8800b17 	ldw	r2,44(sp)
   2230c:	a8ab883a 	add	r21,r21,r2
   22310:	a829883a 	mov	r20,r21
   22314:	a800010e 	bge	r21,zero,2231c <___vfprintf_internal_r+0x1968>
   22318:	0029883a 	mov	r20,zero
   2231c:	d8000715 	stw	zero,28(sp)
   22320:	00008406 	br	22534 <___vfprintf_internal_r+0x1b80>
   22324:	880f883a 	mov	r7,r17
   22328:	10800044 	addi	r2,r2,1
   2232c:	1d47883a 	add	r3,r3,r21
   22330:	b1c00015 	stw	r7,0(r22)
   22334:	003a9506 	br	20d8c <___vfprintf_internal_r+0x3d8>
   22338:	d9801a04 	addi	r6,sp,104
   2233c:	900b883a 	mov	r5,r18
   22340:	9809883a 	mov	r4,r19
   22344:	0027ecc0 	call	27ecc <__sprint_r>
   22348:	103aa71e 	bne	r2,zero,20de8 <___vfprintf_internal_r+0x434>
   2234c:	d8c01c17 	ldw	r3,112(sp)
   22350:	dd802704 	addi	r22,sp,156
   22354:	003caf06 	br	21614 <___vfprintf_internal_r+0xc60>
   22358:	d9801a04 	addi	r6,sp,104
   2235c:	900b883a 	mov	r5,r18
   22360:	9809883a 	mov	r4,r19
   22364:	da000e15 	stw	r8,56(sp)
   22368:	0027ecc0 	call	27ecc <__sprint_r>
   2236c:	103a9e1e 	bne	r2,zero,20de8 <___vfprintf_internal_r+0x434>
   22370:	d8c01c17 	ldw	r3,112(sp)
   22374:	da000e17 	ldw	r8,56(sp)
   22378:	dd802704 	addi	r22,sp,156
   2237c:	003a7a06 	br	20d68 <___vfprintf_internal_r+0x3b4>
   22380:	8809883a 	mov	r4,r17
   22384:	db000415 	stw	r12,16(sp)
   22388:	d8c00615 	stw	r3,24(sp)
   2238c:	002091c0 	call	2091c <strlen>
   22390:	db000417 	ldw	r12,16(sp)
   22394:	102b883a 	mov	r21,r2
   22398:	1029883a 	mov	r20,r2
   2239c:	003a4806 	br	20cc0 <___vfprintf_internal_r+0x30c>
   223a0:	800f883a 	mov	r7,r16
   223a4:	dc000717 	ldw	r16,28(sp)
   223a8:	ad400044 	addi	r21,r21,1
   223ac:	1d87883a 	add	r3,r3,r22
   223b0:	e1c00015 	stw	r7,0(fp)
   223b4:	003da406 	br	21a48 <___vfprintf_internal_r+0x1094>
   223b8:	d8800d17 	ldw	r2,52(sp)
   223bc:	d9000b17 	ldw	r4,44(sp)
   223c0:	b0800015 	stw	r2,0(r22)
   223c4:	d8801b17 	ldw	r2,108(sp)
   223c8:	20c7883a 	add	r3,r4,r3
   223cc:	b1000115 	stw	r4,4(r22)
   223d0:	10800044 	addi	r2,r2,1
   223d4:	d8c01c15 	stw	r3,112(sp)
   223d8:	d8801b15 	stw	r2,108(sp)
   223dc:	11000208 	cmpgei	r4,r2,8
   223e0:	2000981e 	bne	r4,zero,22644 <___vfprintf_internal_r+0x1c90>
   223e4:	b5800204 	addi	r22,r22,8
   223e8:	283d5f0e 	bge	r5,zero,21968 <___vfprintf_internal_r+0xfb4>
   223ec:	01c000f4 	movhi	r7,3
   223f0:	293ffc08 	cmpgei	r4,r5,-16
   223f4:	39ffe104 	addi	r7,r7,-124
   223f8:	0179c83a 	sub	fp,zero,r5
   223fc:	2001151e 	bne	r4,zero,22854 <___vfprintf_internal_r+0x1ea0>
   22400:	dc000715 	stw	r16,28(sp)
   22404:	05400404 	movi	r21,16
   22408:	9021883a 	mov	r16,r18
   2240c:	3825883a 	mov	r18,r7
   22410:	00000406 	br	22424 <___vfprintf_internal_r+0x1a70>
   22414:	b5800204 	addi	r22,r22,8
   22418:	e73ffc04 	addi	fp,fp,-16
   2241c:	e1800448 	cmpgei	r6,fp,17
   22420:	30010926 	beq	r6,zero,22848 <___vfprintf_internal_r+0x1e94>
   22424:	10800044 	addi	r2,r2,1
   22428:	18c00404 	addi	r3,r3,16
   2242c:	b4800015 	stw	r18,0(r22)
   22430:	b5400115 	stw	r21,4(r22)
   22434:	d8c01c15 	stw	r3,112(sp)
   22438:	d8801b15 	stw	r2,108(sp)
   2243c:	11800208 	cmpgei	r6,r2,8
   22440:	303ff426 	beq	r6,zero,22414 <___vfprintf_internal_r+0x1a60>
   22444:	d9801a04 	addi	r6,sp,104
   22448:	800b883a 	mov	r5,r16
   2244c:	9809883a 	mov	r4,r19
   22450:	0027ecc0 	call	27ecc <__sprint_r>
   22454:	1001411e 	bne	r2,zero,2295c <___vfprintf_internal_r+0x1fa8>
   22458:	d8c01c17 	ldw	r3,112(sp)
   2245c:	d8801b17 	ldw	r2,108(sp)
   22460:	dd802704 	addi	r22,sp,156
   22464:	003fec06 	br	22418 <___vfprintf_internal_r+0x1a64>
   22468:	d8801804 	addi	r2,sp,96
   2246c:	d8800315 	stw	r2,12(sp)
   22470:	d9400917 	ldw	r5,36(sp)
   22474:	d8801504 	addi	r2,sp,84
   22478:	d8800215 	stw	r2,8(sp)
   2247c:	d8801404 	addi	r2,sp,80
   22480:	da000015 	stw	r8,0(sp)
   22484:	d8800115 	stw	r2,4(sp)
   22488:	01c000c4 	movi	r7,3
   2248c:	a00d883a 	mov	r6,r20
   22490:	9809883a 	mov	r4,r19
   22494:	db000815 	stw	r12,32(sp)
   22498:	da000715 	stw	r8,28(sp)
   2249c:	0022df80 	call	22df8 <_dtoa_r>
   224a0:	da000717 	ldw	r8,28(sp)
   224a4:	1023883a 	mov	r17,r2
   224a8:	db000817 	ldw	r12,32(sp)
   224ac:	1207883a 	add	r3,r2,r8
   224b0:	88800007 	ldb	r2,0(r17)
   224b4:	10800c20 	cmpeqi	r2,r2,48
   224b8:	10004f1e 	bne	r2,zero,225f8 <___vfprintf_internal_r+0x1c44>
   224bc:	d8801417 	ldw	r2,80(sp)
   224c0:	1893883a 	add	r9,r3,r2
   224c4:	d9000917 	ldw	r4,36(sp)
   224c8:	000d883a 	mov	r6,zero
   224cc:	000f883a 	mov	r7,zero
   224d0:	a00b883a 	mov	r5,r20
   224d4:	da401115 	stw	r9,68(sp)
   224d8:	da000815 	stw	r8,32(sp)
   224dc:	db000715 	stw	r12,28(sp)
   224e0:	002bff00 	call	2bff0 <__eqdf2>
   224e4:	db000717 	ldw	r12,28(sp)
   224e8:	da000817 	ldw	r8,32(sp)
   224ec:	da401117 	ldw	r9,68(sp)
   224f0:	1000811e 	bne	r2,zero,226f8 <___vfprintf_internal_r+0x1d44>
   224f4:	4805883a 	mov	r2,r9
   224f8:	d8c01417 	ldw	r3,80(sp)
   224fc:	1445c83a 	sub	r2,r2,r17
   22500:	ad4011d8 	cmpnei	r21,r21,71
   22504:	d8c00715 	stw	r3,28(sp)
   22508:	d8800815 	stw	r2,32(sp)
   2250c:	a83f3e26 	beq	r21,zero,22208 <___vfprintf_internal_r+0x1854>
   22510:	d8800f17 	ldw	r2,60(sp)
   22514:	103f4126 	beq	r2,zero,2221c <___vfprintf_internal_r+0x1868>
   22518:	d8c00717 	ldw	r3,28(sp)
   2251c:	6080004c 	andi	r2,r12,1
   22520:	1204b03a 	or	r2,r2,r8
   22524:	00c1050e 	bge	zero,r3,2293c <___vfprintf_internal_r+0x1f88>
   22528:	1000f11e 	bne	r2,zero,228f0 <___vfprintf_internal_r+0x1f3c>
   2252c:	dd400717 	ldw	r21,28(sp)
   22530:	a829883a 	mov	r20,r21
   22534:	d8800607 	ldb	r2,24(sp)
   22538:	10007826 	beq	r2,zero,2271c <___vfprintf_internal_r+0x1d68>
   2253c:	00800b44 	movi	r2,45
   22540:	d8801345 	stb	r2,77(sp)
   22544:	d8800e17 	ldw	r2,56(sp)
   22548:	0011883a 	mov	r8,zero
   2254c:	d8800615 	stw	r2,24(sp)
   22550:	003b3506 	br	21228 <___vfprintf_internal_r+0x874>
   22554:	044000f4 	movhi	r17,3
   22558:	8c7fd004 	addi	r17,r17,-192
   2255c:	003aba06 	br	21048 <___vfprintf_internal_r+0x694>
   22560:	800f883a 	mov	r7,r16
   22564:	dc000e17 	ldw	r16,56(sp)
   22568:	10800044 	addi	r2,r2,1
   2256c:	1d47883a 	add	r3,r3,r21
   22570:	d8801b15 	stw	r2,108(sp)
   22574:	b1c00015 	stw	r7,0(r22)
   22578:	b5400115 	stw	r21,4(r22)
   2257c:	d8c01c15 	stw	r3,112(sp)
   22580:	10800208 	cmpgei	r2,r2,8
   22584:	10003a1e 	bne	r2,zero,22670 <___vfprintf_internal_r+0x1cbc>
   22588:	b5800204 	addi	r22,r22,8
   2258c:	003db206 	br	21c58 <___vfprintf_internal_r+0x12a4>
   22590:	00800b44 	movi	r2,45
   22594:	d8801345 	stb	r2,77(sp)
   22598:	03400b44 	movi	r13,45
   2259c:	003aa606 	br	21038 <___vfprintf_internal_r+0x684>
   225a0:	d9801a04 	addi	r6,sp,104
   225a4:	900b883a 	mov	r5,r18
   225a8:	9809883a 	mov	r4,r19
   225ac:	0027ecc0 	call	27ecc <__sprint_r>
   225b0:	103a0d1e 	bne	r2,zero,20de8 <___vfprintf_internal_r+0x434>
   225b4:	d9401417 	ldw	r5,80(sp)
   225b8:	d8c01c17 	ldw	r3,112(sp)
   225bc:	dd802704 	addi	r22,sp,156
   225c0:	003cd706 	br	21920 <___vfprintf_internal_r+0xf6c>
   225c4:	1520003c 	xorhi	r20,r2,32768
   225c8:	00800b44 	movi	r2,45
   225cc:	d8800605 	stb	r2,24(sp)
   225d0:	003ee906 	br	22178 <___vfprintf_internal_r+0x17c4>
   225d4:	05400184 	movi	r21,6
   225d8:	003e5e06 	br	21f54 <___vfprintf_internal_r+0x15a0>
   225dc:	d9801a04 	addi	r6,sp,104
   225e0:	900b883a 	mov	r5,r18
   225e4:	9809883a 	mov	r4,r19
   225e8:	0027ecc0 	call	27ecc <__sprint_r>
   225ec:	0039fe06 	br	20de8 <___vfprintf_internal_r+0x434>
   225f0:	d9401345 	stb	r5,77(sp)
   225f4:	0039ac06 	br	20ca8 <___vfprintf_internal_r+0x2f4>
   225f8:	d9000917 	ldw	r4,36(sp)
   225fc:	000d883a 	mov	r6,zero
   22600:	000f883a 	mov	r7,zero
   22604:	a00b883a 	mov	r5,r20
   22608:	d8c01115 	stw	r3,68(sp)
   2260c:	da000815 	stw	r8,32(sp)
   22610:	db000715 	stw	r12,28(sp)
   22614:	002bff00 	call	2bff0 <__eqdf2>
   22618:	db000717 	ldw	r12,28(sp)
   2261c:	da000817 	ldw	r8,32(sp)
   22620:	d8c01117 	ldw	r3,68(sp)
   22624:	103fa526 	beq	r2,zero,224bc <___vfprintf_internal_r+0x1b08>
   22628:	00800044 	movi	r2,1
   2262c:	1205c83a 	sub	r2,r2,r8
   22630:	d8801415 	stw	r2,80(sp)
   22634:	003fa206 	br	224c0 <___vfprintf_internal_r+0x1b0c>
   22638:	403ec91e 	bne	r8,zero,22160 <___vfprintf_internal_r+0x17ac>
   2263c:	02000044 	movi	r8,1
   22640:	003ec706 	br	22160 <___vfprintf_internal_r+0x17ac>
   22644:	d9801a04 	addi	r6,sp,104
   22648:	900b883a 	mov	r5,r18
   2264c:	9809883a 	mov	r4,r19
   22650:	0027ecc0 	call	27ecc <__sprint_r>
   22654:	1039e41e 	bne	r2,zero,20de8 <___vfprintf_internal_r+0x434>
   22658:	d9401417 	ldw	r5,80(sp)
   2265c:	d8c01c17 	ldw	r3,112(sp)
   22660:	d8801b17 	ldw	r2,108(sp)
   22664:	dd802704 	addi	r22,sp,156
   22668:	283cbf0e 	bge	r5,zero,21968 <___vfprintf_internal_r+0xfb4>
   2266c:	003f5f06 	br	223ec <___vfprintf_internal_r+0x1a38>
   22670:	d9801a04 	addi	r6,sp,104
   22674:	900b883a 	mov	r5,r18
   22678:	9809883a 	mov	r4,r19
   2267c:	0027ecc0 	call	27ecc <__sprint_r>
   22680:	1039d91e 	bne	r2,zero,20de8 <___vfprintf_internal_r+0x434>
   22684:	d8c01c17 	ldw	r3,112(sp)
   22688:	dd802704 	addi	r22,sp,156
   2268c:	003d7206 	br	21c58 <___vfprintf_internal_r+0x12a4>
   22690:	db000417 	ldw	r12,16(sp)
   22694:	003ad706 	br	211f4 <___vfprintf_internal_r+0x840>
   22698:	d8801804 	addi	r2,sp,96
   2269c:	d8800315 	stw	r2,12(sp)
   226a0:	d9400917 	ldw	r5,36(sp)
   226a4:	d8801504 	addi	r2,sp,84
   226a8:	40c00044 	addi	r3,r8,1
   226ac:	d8800215 	stw	r2,8(sp)
   226b0:	d8801404 	addi	r2,sp,80
   226b4:	d8c00015 	stw	r3,0(sp)
   226b8:	d8800115 	stw	r2,4(sp)
   226bc:	01c00084 	movi	r7,2
   226c0:	a00d883a 	mov	r6,r20
   226c4:	9809883a 	mov	r4,r19
   226c8:	db001115 	stw	r12,68(sp)
   226cc:	da000815 	stw	r8,32(sp)
   226d0:	d8c00715 	stw	r3,28(sp)
   226d4:	0022df80 	call	22df8 <_dtoa_r>
   226d8:	d8c00717 	ldw	r3,28(sp)
   226dc:	da000817 	ldw	r8,32(sp)
   226e0:	db001117 	ldw	r12,68(sp)
   226e4:	1023883a 	mov	r17,r2
   226e8:	e08011d8 	cmpnei	r2,fp,71
   226ec:	103ebd26 	beq	r2,zero,221e4 <___vfprintf_internal_r+0x1830>
   226f0:	88d3883a 	add	r9,r17,r3
   226f4:	003f7306 	br	224c4 <___vfprintf_internal_r+0x1b10>
   226f8:	d8801817 	ldw	r2,96(sp)
   226fc:	127f7e2e 	bgeu	r2,r9,224f8 <___vfprintf_internal_r+0x1b44>
   22700:	01000c04 	movi	r4,48
   22704:	10c00044 	addi	r3,r2,1
   22708:	d8c01815 	stw	r3,96(sp)
   2270c:	11000005 	stb	r4,0(r2)
   22710:	d8801817 	ldw	r2,96(sp)
   22714:	127ffb36 	bltu	r2,r9,22704 <___vfprintf_internal_r+0x1d50>
   22718:	003f7706 	br	224f8 <___vfprintf_internal_r+0x1b44>
   2271c:	d8800e17 	ldw	r2,56(sp)
   22720:	db401343 	ldbu	r13,77(sp)
   22724:	0011883a 	mov	r8,zero
   22728:	d8800615 	stw	r2,24(sp)
   2272c:	003aba06 	br	21218 <___vfprintf_internal_r+0x864>
   22730:	d8800717 	ldw	r2,28(sp)
   22734:	d8c00817 	ldw	r3,32(sp)
   22738:	10c02b16 	blt	r2,r3,227e8 <___vfprintf_internal_r+0x1e34>
   2273c:	6300004c 	andi	r12,r12,1
   22740:	6000581e 	bne	r12,zero,228a4 <___vfprintf_internal_r+0x1ef0>
   22744:	1029883a 	mov	r20,r2
   22748:	1000010e 	bge	r2,zero,22750 <___vfprintf_internal_r+0x1d9c>
   2274c:	0029883a 	mov	r20,zero
   22750:	dd400717 	ldw	r21,28(sp)
   22754:	070019c4 	movi	fp,103
   22758:	003f7606 	br	22534 <___vfprintf_internal_r+0x1b80>
   2275c:	d9801a04 	addi	r6,sp,104
   22760:	900b883a 	mov	r5,r18
   22764:	9809883a 	mov	r4,r19
   22768:	0027ecc0 	call	27ecc <__sprint_r>
   2276c:	10399e1e 	bne	r2,zero,20de8 <___vfprintf_internal_r+0x434>
   22770:	dd401417 	ldw	r21,80(sp)
   22774:	d8c01c17 	ldw	r3,112(sp)
   22778:	dd802704 	addi	r22,sp,156
   2277c:	003d4506 	br	21c94 <___vfprintf_internal_r+0x12e0>
   22780:	d9801a04 	addi	r6,sp,104
   22784:	900b883a 	mov	r5,r18
   22788:	9809883a 	mov	r4,r19
   2278c:	0027ecc0 	call	27ecc <__sprint_r>
   22790:	1039951e 	bne	r2,zero,20de8 <___vfprintf_internal_r+0x434>
   22794:	d8c01c17 	ldw	r3,112(sp)
   22798:	dd802704 	addi	r22,sp,156
   2279c:	a83d2b0e 	bge	r21,zero,21c4c <___vfprintf_internal_r+0x1298>
   227a0:	003ddf06 	br	21f20 <___vfprintf_internal_r+0x156c>
   227a4:	02000184 	movi	r8,6
   227a8:	003e6d06 	br	22160 <___vfprintf_internal_r+0x17ac>
   227ac:	d9801a04 	addi	r6,sp,104
   227b0:	900b883a 	mov	r5,r18
   227b4:	9809883a 	mov	r4,r19
   227b8:	0027ecc0 	call	27ecc <__sprint_r>
   227bc:	10398a1e 	bne	r2,zero,20de8 <___vfprintf_internal_r+0x434>
   227c0:	d8801417 	ldw	r2,80(sp)
   227c4:	d9000817 	ldw	r4,32(sp)
   227c8:	d8c01c17 	ldw	r3,112(sp)
   227cc:	dd802704 	addi	r22,sp,156
   227d0:	2085c83a 	sub	r2,r4,r2
   227d4:	003d4306 	br	21ce4 <___vfprintf_internal_r+0x1330>
   227d8:	4029883a 	mov	r20,r8
   227dc:	d8c00615 	stw	r3,24(sp)
   227e0:	402b883a 	mov	r21,r8
   227e4:	00393606 	br	20cc0 <___vfprintf_internal_r+0x30c>
   227e8:	d8800817 	ldw	r2,32(sp)
   227ec:	d8c00b17 	ldw	r3,44(sp)
   227f0:	10eb883a 	add	r21,r2,r3
   227f4:	d8800717 	ldw	r2,28(sp)
   227f8:	00800316 	blt	zero,r2,22808 <___vfprintf_internal_r+0x1e54>
   227fc:	d8800717 	ldw	r2,28(sp)
   22800:	a8abc83a 	sub	r21,r21,r2
   22804:	ad400044 	addi	r21,r21,1
   22808:	a829883a 	mov	r20,r21
   2280c:	a8002a16 	blt	r21,zero,228b8 <___vfprintf_internal_r+0x1f04>
   22810:	070019c4 	movi	fp,103
   22814:	003f4706 	br	22534 <___vfprintf_internal_r+0x1b80>
   22818:	d9401345 	stb	r5,77(sp)
   2281c:	003aa006 	br	212a0 <___vfprintf_internal_r+0x8ec>
   22820:	d9401345 	stb	r5,77(sp)
   22824:	003b3406 	br	214f8 <___vfprintf_internal_r+0xb44>
   22828:	d9401345 	stb	r5,77(sp)
   2282c:	0039d706 	br	20f8c <___vfprintf_internal_r+0x5d8>
   22830:	d9401345 	stb	r5,77(sp)
   22834:	003a5a06 	br	211a0 <___vfprintf_internal_r+0x7ec>
   22838:	d9401345 	stb	r5,77(sp)
   2283c:	003af306 	br	2140c <___vfprintf_internal_r+0xa58>
   22840:	d9401345 	stb	r5,77(sp)
   22844:	003b4c06 	br	21578 <___vfprintf_internal_r+0xbc4>
   22848:	900f883a 	mov	r7,r18
   2284c:	8025883a 	mov	r18,r16
   22850:	dc000717 	ldw	r16,28(sp)
   22854:	10800044 	addi	r2,r2,1
   22858:	1f07883a 	add	r3,r3,fp
   2285c:	b1c00015 	stw	r7,0(r22)
   22860:	b7000115 	stw	fp,4(r22)
   22864:	d8c01c15 	stw	r3,112(sp)
   22868:	d8801b15 	stw	r2,108(sp)
   2286c:	11000208 	cmpgei	r4,r2,8
   22870:	203c3c26 	beq	r4,zero,21964 <___vfprintf_internal_r+0xfb0>
   22874:	d9801a04 	addi	r6,sp,104
   22878:	900b883a 	mov	r5,r18
   2287c:	9809883a 	mov	r4,r19
   22880:	0027ecc0 	call	27ecc <__sprint_r>
   22884:	1039581e 	bne	r2,zero,20de8 <___vfprintf_internal_r+0x434>
   22888:	d8c01c17 	ldw	r3,112(sp)
   2288c:	d8801b17 	ldw	r2,108(sp)
   22890:	dd802704 	addi	r22,sp,156
   22894:	003c3406 	br	21968 <___vfprintf_internal_r+0xfb4>
   22898:	00bfffc4 	movi	r2,-1
   2289c:	d8800515 	stw	r2,20(sp)
   228a0:	00395406 	br	20df4 <___vfprintf_internal_r+0x440>
   228a4:	d8800717 	ldw	r2,28(sp)
   228a8:	d8c00b17 	ldw	r3,44(sp)
   228ac:	10eb883a 	add	r21,r2,r3
   228b0:	a829883a 	mov	r20,r21
   228b4:	a83fd60e 	bge	r21,zero,22810 <___vfprintf_internal_r+0x1e5c>
   228b8:	0029883a 	mov	r20,zero
   228bc:	003fd406 	br	22810 <___vfprintf_internal_r+0x1e5c>
   228c0:	00800c04 	movi	r2,48
   228c4:	ad400c04 	addi	r21,r21,48
   228c8:	d88016c5 	stb	r2,91(sp)
   228cc:	00800104 	movi	r2,4
   228d0:	dd401705 	stb	r21,92(sp)
   228d4:	d8801015 	stw	r2,64(sp)
   228d8:	003e8606 	br	222f4 <___vfprintf_internal_r+0x1940>
   228dc:	05400044 	movi	r21,1
   228e0:	a8abc83a 	sub	r21,r21,r2
   228e4:	00800b44 	movi	r2,45
   228e8:	d8801685 	stb	r2,90(sp)
   228ec:	003e5206 	br	22238 <___vfprintf_internal_r+0x1884>
   228f0:	d8800b17 	ldw	r2,44(sp)
   228f4:	18ab883a 	add	r21,r3,r2
   228f8:	aa2b883a 	add	r21,r21,r8
   228fc:	a829883a 	mov	r20,r21
   22900:	a83f0c0e 	bge	r21,zero,22534 <___vfprintf_internal_r+0x1b80>
   22904:	0029883a 	mov	r20,zero
   22908:	003f0a06 	br	22534 <___vfprintf_internal_r+0x1b80>
   2290c:	6080004c 	andi	r2,r12,1
   22910:	d8800715 	stw	r2,28(sp)
   22914:	103e7c1e 	bne	r2,zero,22308 <___vfprintf_internal_r+0x1954>
   22918:	003ff806 	br	228fc <___vfprintf_internal_r+0x1f48>
   2291c:	d8800a17 	ldw	r2,40(sp)
   22920:	10001316 	blt	r2,zero,22970 <___vfprintf_internal_r+0x1fbc>
   22924:	db401343 	ldbu	r13,77(sp)
   22928:	e0801210 	cmplti	r2,fp,72
   2292c:	10000d1e 	bne	r2,zero,22964 <___vfprintf_internal_r+0x1fb0>
   22930:	044000f4 	movhi	r17,3
   22934:	8c7fd304 	addi	r17,r17,-180
   22938:	0039c306 	br	21048 <___vfprintf_internal_r+0x694>
   2293c:	1000031e 	bne	r2,zero,2294c <___vfprintf_internal_r+0x1f98>
   22940:	05000044 	movi	r20,1
   22944:	05400044 	movi	r21,1
   22948:	003efa06 	br	22534 <___vfprintf_internal_r+0x1b80>
   2294c:	d8800b17 	ldw	r2,44(sp)
   22950:	15400044 	addi	r21,r2,1
   22954:	aa2b883a 	add	r21,r21,r8
   22958:	003fe806 	br	228fc <___vfprintf_internal_r+0x1f48>
   2295c:	8025883a 	mov	r18,r16
   22960:	00392106 	br	20de8 <___vfprintf_internal_r+0x434>
   22964:	044000f4 	movhi	r17,3
   22968:	8c7fd204 	addi	r17,r17,-184
   2296c:	0039b606 	br	21048 <___vfprintf_internal_r+0x694>
   22970:	00800b44 	movi	r2,45
   22974:	d8801345 	stb	r2,77(sp)
   22978:	03400b44 	movi	r13,45
   2297c:	003fea06 	br	22928 <___vfprintf_internal_r+0x1f74>
   22980:	d8800617 	ldw	r2,24(sp)
   22984:	12000017 	ldw	r8,0(r2)
   22988:	10800104 	addi	r2,r2,4
   2298c:	4000010e 	bge	r8,zero,22994 <___vfprintf_internal_r+0x1fe0>
   22990:	023fffc4 	movi	r8,-1
   22994:	bf000043 	ldbu	fp,1(r23)
   22998:	d8800615 	stw	r2,24(sp)
   2299c:	182f883a 	mov	r23,r3
   229a0:	e2c03fcc 	andi	r11,fp,255
   229a4:	5ac0201c 	xori	r11,r11,128
   229a8:	5affe004 	addi	r11,r11,-128
   229ac:	00384d06 	br	20ae4 <___vfprintf_internal_r+0x130>
   229b0:	00800084 	movi	r2,2
   229b4:	d8801015 	stw	r2,64(sp)
   229b8:	003e4e06 	br	222f4 <___vfprintf_internal_r+0x1940>

000229bc <__vfprintf_internal>:
   229bc:	00c000f4 	movhi	r3,3
   229c0:	2005883a 	mov	r2,r4
   229c4:	19084a17 	ldw	r4,8488(r3)
   229c8:	300f883a 	mov	r7,r6
   229cc:	280d883a 	mov	r6,r5
   229d0:	100b883a 	mov	r5,r2
   229d4:	00209b41 	jmpi	209b4 <___vfprintf_internal_r>

000229d8 <__sbprintf>:
   229d8:	2880030b 	ldhu	r2,12(r5)
   229dc:	2b001917 	ldw	r12,100(r5)
   229e0:	2ac0038b 	ldhu	r11,14(r5)
   229e4:	2a800717 	ldw	r10,28(r5)
   229e8:	2a400917 	ldw	r9,36(r5)
   229ec:	defee204 	addi	sp,sp,-1144
   229f0:	da001a04 	addi	r8,sp,104
   229f4:	00c10004 	movi	r3,1024
   229f8:	dc011a15 	stw	r16,1128(sp)
   229fc:	10bfff4c 	andi	r2,r2,65533
   22a00:	2821883a 	mov	r16,r5
   22a04:	d80b883a 	mov	r5,sp
   22a08:	dc811c15 	stw	r18,1136(sp)
   22a0c:	dc411b15 	stw	r17,1132(sp)
   22a10:	dfc11d15 	stw	ra,1140(sp)
   22a14:	2025883a 	mov	r18,r4
   22a18:	d880030d 	sth	r2,12(sp)
   22a1c:	db001915 	stw	r12,100(sp)
   22a20:	dac0038d 	sth	r11,14(sp)
   22a24:	da800715 	stw	r10,28(sp)
   22a28:	da400915 	stw	r9,36(sp)
   22a2c:	da000015 	stw	r8,0(sp)
   22a30:	da000415 	stw	r8,16(sp)
   22a34:	d8c00215 	stw	r3,8(sp)
   22a38:	d8c00515 	stw	r3,20(sp)
   22a3c:	d8000615 	stw	zero,24(sp)
   22a40:	00209b40 	call	209b4 <___vfprintf_internal_r>
   22a44:	1023883a 	mov	r17,r2
   22a48:	10000d0e 	bge	r2,zero,22a80 <__sbprintf+0xa8>
   22a4c:	d880030b 	ldhu	r2,12(sp)
   22a50:	1080100c 	andi	r2,r2,64
   22a54:	10000326 	beq	r2,zero,22a64 <__sbprintf+0x8c>
   22a58:	8080030b 	ldhu	r2,12(r16)
   22a5c:	10801014 	ori	r2,r2,64
   22a60:	8080030d 	sth	r2,12(r16)
   22a64:	8805883a 	mov	r2,r17
   22a68:	dfc11d17 	ldw	ra,1140(sp)
   22a6c:	dc811c17 	ldw	r18,1136(sp)
   22a70:	dc411b17 	ldw	r17,1132(sp)
   22a74:	dc011a17 	ldw	r16,1128(sp)
   22a78:	dec11e04 	addi	sp,sp,1144
   22a7c:	f800283a 	ret
   22a80:	d80b883a 	mov	r5,sp
   22a84:	9009883a 	mov	r4,r18
   22a88:	00247680 	call	24768 <_fflush_r>
   22a8c:	103fef26 	beq	r2,zero,22a4c <__sbprintf+0x74>
   22a90:	047fffc4 	movi	r17,-1
   22a94:	003fed06 	br	22a4c <__sbprintf+0x74>

00022a98 <__swsetup_r>:
   22a98:	008000f4 	movhi	r2,3
   22a9c:	10884a17 	ldw	r2,8488(r2)
   22aa0:	defffd04 	addi	sp,sp,-12
   22aa4:	dc400115 	stw	r17,4(sp)
   22aa8:	dc000015 	stw	r16,0(sp)
   22aac:	dfc00215 	stw	ra,8(sp)
   22ab0:	2023883a 	mov	r17,r4
   22ab4:	2821883a 	mov	r16,r5
   22ab8:	10000226 	beq	r2,zero,22ac4 <__swsetup_r+0x2c>
   22abc:	10c00e17 	ldw	r3,56(r2)
   22ac0:	18001f26 	beq	r3,zero,22b40 <__swsetup_r+0xa8>
   22ac4:	8180030b 	ldhu	r6,12(r16)
   22ac8:	30c0020c 	andi	r3,r6,8
   22acc:	3005883a 	mov	r2,r6
   22ad0:	18002126 	beq	r3,zero,22b58 <__swsetup_r+0xc0>
   22ad4:	80c00417 	ldw	r3,16(r16)
   22ad8:	18002826 	beq	r3,zero,22b7c <__swsetup_r+0xe4>
   22adc:	1100004c 	andi	r4,r2,1
   22ae0:	20000b1e 	bne	r4,zero,22b10 <__swsetup_r+0x78>
   22ae4:	1100008c 	andi	r4,r2,2
   22ae8:	20002e1e 	bne	r4,zero,22ba4 <__swsetup_r+0x10c>
   22aec:	81000517 	ldw	r4,20(r16)
   22af0:	81000215 	stw	r4,8(r16)
   22af4:	18000b26 	beq	r3,zero,22b24 <__swsetup_r+0x8c>
   22af8:	0005883a 	mov	r2,zero
   22afc:	dfc00217 	ldw	ra,8(sp)
   22b00:	dc400117 	ldw	r17,4(sp)
   22b04:	dc000017 	ldw	r16,0(sp)
   22b08:	dec00304 	addi	sp,sp,12
   22b0c:	f800283a 	ret
   22b10:	81000517 	ldw	r4,20(r16)
   22b14:	80000215 	stw	zero,8(r16)
   22b18:	0109c83a 	sub	r4,zero,r4
   22b1c:	81000615 	stw	r4,24(r16)
   22b20:	183ff51e 	bne	r3,zero,22af8 <__swsetup_r+0x60>
   22b24:	10c0200c 	andi	r3,r2,128
   22b28:	0005883a 	mov	r2,zero
   22b2c:	183ff326 	beq	r3,zero,22afc <__swsetup_r+0x64>
   22b30:	31801014 	ori	r6,r6,64
   22b34:	8180030d 	sth	r6,12(r16)
   22b38:	00bfffc4 	movi	r2,-1
   22b3c:	003fef06 	br	22afc <__swsetup_r+0x64>
   22b40:	1009883a 	mov	r4,r2
   22b44:	0024ba00 	call	24ba0 <__sinit>
   22b48:	8180030b 	ldhu	r6,12(r16)
   22b4c:	30c0020c 	andi	r3,r6,8
   22b50:	3005883a 	mov	r2,r6
   22b54:	183fdf1e 	bne	r3,zero,22ad4 <__swsetup_r+0x3c>
   22b58:	3080040c 	andi	r2,r6,16
   22b5c:	10002126 	beq	r2,zero,22be4 <__swsetup_r+0x14c>
   22b60:	3080010c 	andi	r2,r6,4
   22b64:	1000111e 	bne	r2,zero,22bac <__swsetup_r+0x114>
   22b68:	80c00417 	ldw	r3,16(r16)
   22b6c:	30800214 	ori	r2,r6,8
   22b70:	8080030d 	sth	r2,12(r16)
   22b74:	100d883a 	mov	r6,r2
   22b78:	183fd81e 	bne	r3,zero,22adc <__swsetup_r+0x44>
   22b7c:	1100a00c 	andi	r4,r2,640
   22b80:	21008020 	cmpeqi	r4,r4,512
   22b84:	203fd51e 	bne	r4,zero,22adc <__swsetup_r+0x44>
   22b88:	800b883a 	mov	r5,r16
   22b8c:	8809883a 	mov	r4,r17
   22b90:	00255e40 	call	255e4 <__smakebuf_r>
   22b94:	8180030b 	ldhu	r6,12(r16)
   22b98:	80c00417 	ldw	r3,16(r16)
   22b9c:	3005883a 	mov	r2,r6
   22ba0:	003fce06 	br	22adc <__swsetup_r+0x44>
   22ba4:	0009883a 	mov	r4,zero
   22ba8:	003fd106 	br	22af0 <__swsetup_r+0x58>
   22bac:	81400c17 	ldw	r5,48(r16)
   22bb0:	28000626 	beq	r5,zero,22bcc <__swsetup_r+0x134>
   22bb4:	80801004 	addi	r2,r16,64
   22bb8:	28800326 	beq	r5,r2,22bc8 <__swsetup_r+0x130>
   22bbc:	8809883a 	mov	r4,r17
   22bc0:	0024d040 	call	24d04 <_free_r>
   22bc4:	8180030b 	ldhu	r6,12(r16)
   22bc8:	80000c15 	stw	zero,48(r16)
   22bcc:	80c00417 	ldw	r3,16(r16)
   22bd0:	00bff6c4 	movi	r2,-37
   22bd4:	118c703a 	and	r6,r2,r6
   22bd8:	80000115 	stw	zero,4(r16)
   22bdc:	80c00015 	stw	r3,0(r16)
   22be0:	003fe206 	br	22b6c <__swsetup_r+0xd4>
   22be4:	00800244 	movi	r2,9
   22be8:	88800015 	stw	r2,0(r17)
   22bec:	31801014 	ori	r6,r6,64
   22bf0:	8180030d 	sth	r6,12(r16)
   22bf4:	00bfffc4 	movi	r2,-1
   22bf8:	003fc006 	br	22afc <__swsetup_r+0x64>

00022bfc <quorem>:
   22bfc:	defff504 	addi	sp,sp,-44
   22c00:	dc800315 	stw	r18,12(sp)
   22c04:	20800417 	ldw	r2,16(r4)
   22c08:	2c800417 	ldw	r18,16(r5)
   22c0c:	dfc00a15 	stw	ra,40(sp)
   22c10:	df000915 	stw	fp,36(sp)
   22c14:	ddc00815 	stw	r23,32(sp)
   22c18:	dd800715 	stw	r22,28(sp)
   22c1c:	dd400615 	stw	r21,24(sp)
   22c20:	dd000515 	stw	r20,20(sp)
   22c24:	dcc00415 	stw	r19,16(sp)
   22c28:	dc400215 	stw	r17,8(sp)
   22c2c:	dc000115 	stw	r16,4(sp)
   22c30:	14806f16 	blt	r2,r18,22df0 <quorem+0x1f4>
   22c34:	94bfffc4 	addi	r18,r18,-1
   22c38:	902c90ba 	slli	r22,r18,2
   22c3c:	2c000504 	addi	r16,r5,20
   22c40:	25000504 	addi	r20,r4,20
   22c44:	85a7883a 	add	r19,r16,r22
   22c48:	9f000017 	ldw	fp,0(r19)
   22c4c:	a5ad883a 	add	r22,r20,r22
   22c50:	202b883a 	mov	r21,r4
   22c54:	b1000017 	ldw	r4,0(r22)
   22c58:	e7000044 	addi	fp,fp,1
   22c5c:	282f883a 	mov	r23,r5
   22c60:	e00b883a 	mov	r5,fp
   22c64:	d9000015 	stw	r4,0(sp)
   22c68:	00206f80 	call	206f8 <__udivsi3>
   22c6c:	d9000017 	ldw	r4,0(sp)
   22c70:	1023883a 	mov	r17,r2
   22c74:	27002a36 	bltu	r4,fp,22d20 <quorem+0x124>
   22c78:	800b883a 	mov	r5,r16
   22c7c:	a009883a 	mov	r4,r20
   22c80:	0013883a 	mov	r9,zero
   22c84:	0007883a 	mov	r3,zero
   22c88:	2a000017 	ldw	r8,0(r5)
   22c8c:	21800017 	ldw	r6,0(r4)
   22c90:	21000104 	addi	r4,r4,4
   22c94:	40bfffcc 	andi	r2,r8,65535
   22c98:	1445383a 	mul	r2,r2,r17
   22c9c:	400ed43a 	srli	r7,r8,16
   22ca0:	32bfffcc 	andi	r10,r6,65535
   22ca4:	1245883a 	add	r2,r2,r9
   22ca8:	1012d43a 	srli	r9,r2,16
   22cac:	123fffcc 	andi	r8,r2,65535
   22cb0:	3c4f383a 	mul	r7,r7,r17
   22cb4:	1a07c83a 	sub	r3,r3,r8
   22cb8:	1a91883a 	add	r8,r3,r10
   22cbc:	3006d43a 	srli	r3,r6,16
   22cc0:	4005d43a 	srai	r2,r8,16
   22cc4:	3a4f883a 	add	r7,r7,r9
   22cc8:	39bfffcc 	andi	r6,r7,65535
   22ccc:	1987c83a 	sub	r3,r3,r6
   22cd0:	1887883a 	add	r3,r3,r2
   22cd4:	1804943a 	slli	r2,r3,16
   22cd8:	423fffcc 	andi	r8,r8,65535
   22cdc:	29400104 	addi	r5,r5,4
   22ce0:	1210b03a 	or	r8,r2,r8
   22ce4:	223fff15 	stw	r8,-4(r4)
   22ce8:	3812d43a 	srli	r9,r7,16
   22cec:	1807d43a 	srai	r3,r3,16
   22cf0:	997fe52e 	bgeu	r19,r5,22c88 <quorem+0x8c>
   22cf4:	b0800017 	ldw	r2,0(r22)
   22cf8:	1000091e 	bne	r2,zero,22d20 <quorem+0x124>
   22cfc:	b5bfff04 	addi	r22,r22,-4
   22d00:	a5800336 	bltu	r20,r22,22d10 <quorem+0x114>
   22d04:	00000506 	br	22d1c <quorem+0x120>
   22d08:	94bfffc4 	addi	r18,r18,-1
   22d0c:	a580032e 	bgeu	r20,r22,22d1c <quorem+0x120>
   22d10:	b0800017 	ldw	r2,0(r22)
   22d14:	b5bfff04 	addi	r22,r22,-4
   22d18:	103ffb26 	beq	r2,zero,22d08 <quorem+0x10c>
   22d1c:	ac800415 	stw	r18,16(r21)
   22d20:	b80b883a 	mov	r5,r23
   22d24:	a809883a 	mov	r4,r21
   22d28:	0026e180 	call	26e18 <__mcmp>
   22d2c:	10002316 	blt	r2,zero,22dbc <quorem+0x1c0>
   22d30:	8c400044 	addi	r17,r17,1
   22d34:	a00d883a 	mov	r6,r20
   22d38:	0007883a 	mov	r3,zero
   22d3c:	81000017 	ldw	r4,0(r16)
   22d40:	31400017 	ldw	r5,0(r6)
   22d44:	31800104 	addi	r6,r6,4
   22d48:	20bfffcc 	andi	r2,r4,65535
   22d4c:	1887c83a 	sub	r3,r3,r2
   22d50:	28bfffcc 	andi	r2,r5,65535
   22d54:	1885883a 	add	r2,r3,r2
   22d58:	2008d43a 	srli	r4,r4,16
   22d5c:	2806d43a 	srli	r3,r5,16
   22d60:	100fd43a 	srai	r7,r2,16
   22d64:	117fffcc 	andi	r5,r2,65535
   22d68:	1907c83a 	sub	r3,r3,r4
   22d6c:	19c7883a 	add	r3,r3,r7
   22d70:	1804943a 	slli	r2,r3,16
   22d74:	84000104 	addi	r16,r16,4
   22d78:	1807d43a 	srai	r3,r3,16
   22d7c:	1144b03a 	or	r2,r2,r5
   22d80:	30bfff15 	stw	r2,-4(r6)
   22d84:	9c3fed2e 	bgeu	r19,r16,22d3c <quorem+0x140>
   22d88:	900490ba 	slli	r2,r18,2
   22d8c:	a085883a 	add	r2,r20,r2
   22d90:	10c00017 	ldw	r3,0(r2)
   22d94:	1800091e 	bne	r3,zero,22dbc <quorem+0x1c0>
   22d98:	10bfff04 	addi	r2,r2,-4
   22d9c:	a0800336 	bltu	r20,r2,22dac <quorem+0x1b0>
   22da0:	00000506 	br	22db8 <quorem+0x1bc>
   22da4:	94bfffc4 	addi	r18,r18,-1
   22da8:	a080032e 	bgeu	r20,r2,22db8 <quorem+0x1bc>
   22dac:	10c00017 	ldw	r3,0(r2)
   22db0:	10bfff04 	addi	r2,r2,-4
   22db4:	183ffb26 	beq	r3,zero,22da4 <quorem+0x1a8>
   22db8:	ac800415 	stw	r18,16(r21)
   22dbc:	8805883a 	mov	r2,r17
   22dc0:	dfc00a17 	ldw	ra,40(sp)
   22dc4:	df000917 	ldw	fp,36(sp)
   22dc8:	ddc00817 	ldw	r23,32(sp)
   22dcc:	dd800717 	ldw	r22,28(sp)
   22dd0:	dd400617 	ldw	r21,24(sp)
   22dd4:	dd000517 	ldw	r20,20(sp)
   22dd8:	dcc00417 	ldw	r19,16(sp)
   22ddc:	dc800317 	ldw	r18,12(sp)
   22de0:	dc400217 	ldw	r17,8(sp)
   22de4:	dc000117 	ldw	r16,4(sp)
   22de8:	dec00b04 	addi	sp,sp,44
   22dec:	f800283a 	ret
   22df0:	0005883a 	mov	r2,zero
   22df4:	003ff206 	br	22dc0 <quorem+0x1c4>

00022df8 <_dtoa_r>:
   22df8:	20801017 	ldw	r2,64(r4)
   22dfc:	deffe304 	addi	sp,sp,-116
   22e00:	df001b15 	stw	fp,108(sp)
   22e04:	dcc01615 	stw	r19,88(sp)
   22e08:	dc801515 	stw	r18,84(sp)
   22e0c:	dc401415 	stw	r17,80(sp)
   22e10:	dc001315 	stw	r16,76(sp)
   22e14:	dfc01c15 	stw	ra,112(sp)
   22e18:	ddc01a15 	stw	r23,104(sp)
   22e1c:	dd801915 	stw	r22,100(sp)
   22e20:	dd401815 	stw	r21,96(sp)
   22e24:	dd001715 	stw	r20,92(sp)
   22e28:	d9c00215 	stw	r7,8(sp)
   22e2c:	dc001f17 	ldw	r16,124(sp)
   22e30:	2039883a 	mov	fp,r4
   22e34:	3025883a 	mov	r18,r6
   22e38:	2827883a 	mov	r19,r5
   22e3c:	3023883a 	mov	r17,r6
   22e40:	10000826 	beq	r2,zero,22e64 <_dtoa_r+0x6c>
   22e44:	21801117 	ldw	r6,68(r4)
   22e48:	00c00044 	movi	r3,1
   22e4c:	100b883a 	mov	r5,r2
   22e50:	1986983a 	sll	r3,r3,r6
   22e54:	11800115 	stw	r6,4(r2)
   22e58:	10c00215 	stw	r3,8(r2)
   22e5c:	002649c0 	call	2649c <_Bfree>
   22e60:	e0001015 	stw	zero,64(fp)
   22e64:	90018916 	blt	r18,zero,2348c <_dtoa_r+0x694>
   22e68:	80000015 	stw	zero,0(r16)
   22e6c:	909ffc2c 	andhi	r2,r18,32752
   22e70:	00dffc34 	movhi	r3,32752
   22e74:	10c18e26 	beq	r2,r3,234b0 <_dtoa_r+0x6b8>
   22e78:	000d883a 	mov	r6,zero
   22e7c:	000f883a 	mov	r7,zero
   22e80:	9809883a 	mov	r4,r19
   22e84:	880b883a 	mov	r5,r17
   22e88:	002bff00 	call	2bff0 <__eqdf2>
   22e8c:	1000191e 	bne	r2,zero,22ef4 <_dtoa_r+0xfc>
   22e90:	d8c01e17 	ldw	r3,120(sp)
   22e94:	00800044 	movi	r2,1
   22e98:	18800015 	stw	r2,0(r3)
   22e9c:	d8802017 	ldw	r2,128(sp)
   22ea0:	1002ff26 	beq	r2,zero,23aa0 <_dtoa_r+0xca8>
   22ea4:	d9002017 	ldw	r4,128(sp)
   22ea8:	008000f4 	movhi	r2,3
   22eac:	10bfe044 	addi	r2,r2,-127
   22eb0:	00c000f4 	movhi	r3,3
   22eb4:	20800015 	stw	r2,0(r4)
   22eb8:	18bfe004 	addi	r2,r3,-128
   22ebc:	d8800115 	stw	r2,4(sp)
   22ec0:	d8800117 	ldw	r2,4(sp)
   22ec4:	dfc01c17 	ldw	ra,112(sp)
   22ec8:	df001b17 	ldw	fp,108(sp)
   22ecc:	ddc01a17 	ldw	r23,104(sp)
   22ed0:	dd801917 	ldw	r22,100(sp)
   22ed4:	dd401817 	ldw	r21,96(sp)
   22ed8:	dd001717 	ldw	r20,92(sp)
   22edc:	dcc01617 	ldw	r19,88(sp)
   22ee0:	dc801517 	ldw	r18,84(sp)
   22ee4:	dc401417 	ldw	r17,80(sp)
   22ee8:	dc001317 	ldw	r16,76(sp)
   22eec:	dec01d04 	addi	sp,sp,116
   22ef0:	f800283a 	ret
   22ef4:	d8801104 	addi	r2,sp,68
   22ef8:	9020d53a 	srli	r16,r18,20
   22efc:	d8800015 	stw	r2,0(sp)
   22f00:	d9c01204 	addi	r7,sp,72
   22f04:	980b883a 	mov	r5,r19
   22f08:	880d883a 	mov	r6,r17
   22f0c:	e009883a 	mov	r4,fp
   22f10:	00272000 	call	27200 <__d2b>
   22f14:	102f883a 	mov	r23,r2
   22f18:	8001781e 	bne	r16,zero,234fc <_dtoa_r+0x704>
   22f1c:	dd001117 	ldw	r20,68(sp)
   22f20:	dc001217 	ldw	r16,72(sp)
   22f24:	a421883a 	add	r16,r20,r16
   22f28:	80810c84 	addi	r2,r16,1074
   22f2c:	10c00850 	cmplti	r3,r2,33
   22f30:	1802eb1e 	bne	r3,zero,23ae0 <_dtoa_r+0xce8>
   22f34:	01001004 	movi	r4,64
   22f38:	2085c83a 	sub	r2,r4,r2
   22f3c:	81010484 	addi	r4,r16,1042
   22f40:	90a4983a 	sll	r18,r18,r2
   22f44:	9908d83a 	srl	r4,r19,r4
   22f48:	9108b03a 	or	r4,r18,r4
   22f4c:	002d34c0 	call	2d34c <__floatunsidf>
   22f50:	1009883a 	mov	r4,r2
   22f54:	017f8434 	movhi	r5,65040
   22f58:	00800044 	movi	r2,1
   22f5c:	194b883a 	add	r5,r3,r5
   22f60:	843fffc4 	addi	r16,r16,-1
   22f64:	d8800915 	stw	r2,36(sp)
   22f68:	000d883a 	mov	r6,zero
   22f6c:	01cffe34 	movhi	r7,16376
   22f70:	002c8b40 	call	2c8b4 <__subdf3>
   22f74:	0198dbf4 	movhi	r6,25455
   22f78:	01cff4f4 	movhi	r7,16339
   22f7c:	3190d844 	addi	r6,r6,17249
   22f80:	39e1e9c4 	addi	r7,r7,-30809
   22f84:	1009883a 	mov	r4,r2
   22f88:	180b883a 	mov	r5,r3
   22f8c:	002c2400 	call	2c240 <__muldf3>
   22f90:	01a2d874 	movhi	r6,35681
   22f94:	01cff1f4 	movhi	r7,16327
   22f98:	31b22cc4 	addi	r6,r6,-14157
   22f9c:	39e28a04 	addi	r7,r7,-30168
   22fa0:	180b883a 	mov	r5,r3
   22fa4:	1009883a 	mov	r4,r2
   22fa8:	002aeb00 	call	2aeb0 <__adddf3>
   22fac:	8009883a 	mov	r4,r16
   22fb0:	102b883a 	mov	r21,r2
   22fb4:	1825883a 	mov	r18,r3
   22fb8:	002d2940 	call	2d294 <__floatsidf>
   22fbc:	019427f4 	movhi	r6,20639
   22fc0:	01cff4f4 	movhi	r7,16339
   22fc4:	319e7ec4 	addi	r6,r6,31227
   22fc8:	39d104c4 	addi	r7,r7,17427
   22fcc:	1009883a 	mov	r4,r2
   22fd0:	180b883a 	mov	r5,r3
   22fd4:	002c2400 	call	2c240 <__muldf3>
   22fd8:	100d883a 	mov	r6,r2
   22fdc:	180f883a 	mov	r7,r3
   22fe0:	a809883a 	mov	r4,r21
   22fe4:	900b883a 	mov	r5,r18
   22fe8:	002aeb00 	call	2aeb0 <__adddf3>
   22fec:	1009883a 	mov	r4,r2
   22ff0:	180b883a 	mov	r5,r3
   22ff4:	1025883a 	mov	r18,r2
   22ff8:	182d883a 	mov	r22,r3
   22ffc:	002d2140 	call	2d214 <__fixdfsi>
   23000:	000d883a 	mov	r6,zero
   23004:	000f883a 	mov	r7,zero
   23008:	9009883a 	mov	r4,r18
   2300c:	b00b883a 	mov	r5,r22
   23010:	102b883a 	mov	r21,r2
   23014:	002c1580 	call	2c158 <__ledf2>
   23018:	10029716 	blt	r2,zero,23a78 <_dtoa_r+0xc80>
   2301c:	a421c83a 	sub	r16,r20,r16
   23020:	a88005e8 	cmpgeui	r2,r21,23
   23024:	85bfffc4 	addi	r22,r16,-1
   23028:	10028b1e 	bne	r2,zero,23a58 <_dtoa_r+0xc60>
   2302c:	a80690fa 	slli	r3,r21,3
   23030:	008000f4 	movhi	r2,3
   23034:	10802704 	addi	r2,r2,156
   23038:	10c5883a 	add	r2,r2,r3
   2303c:	11800017 	ldw	r6,0(r2)
   23040:	11c00117 	ldw	r7,4(r2)
   23044:	9809883a 	mov	r4,r19
   23048:	880b883a 	mov	r5,r17
   2304c:	002c1580 	call	2c158 <__ledf2>
   23050:	10025f0e 	bge	r2,zero,239d0 <_dtoa_r+0xbd8>
   23054:	d8000815 	stw	zero,32(sp)
   23058:	ad7fffc4 	addi	r21,r21,-1
   2305c:	b0028116 	blt	r22,zero,23a64 <_dtoa_r+0xc6c>
   23060:	d8000415 	stw	zero,16(sp)
   23064:	a8025d0e 	bge	r21,zero,239dc <_dtoa_r+0xbe4>
   23068:	d8800417 	ldw	r2,16(sp)
   2306c:	d8c00217 	ldw	r3,8(sp)
   23070:	dd400615 	stw	r21,24(sp)
   23074:	1545c83a 	sub	r2,r2,r21
   23078:	d8800415 	stw	r2,16(sp)
   2307c:	0545c83a 	sub	r2,zero,r21
   23080:	d8800715 	stw	r2,28(sp)
   23084:	188002a8 	cmpgeui	r2,r3,10
   23088:	002b883a 	mov	r21,zero
   2308c:	1002591e 	bne	r2,zero,239f4 <_dtoa_r+0xbfc>
   23090:	18800190 	cmplti	r2,r3,6
   23094:	1002961e 	bne	r2,zero,23af0 <_dtoa_r+0xcf8>
   23098:	18bfff04 	addi	r2,r3,-4
   2309c:	d8800215 	stw	r2,8(sp)
   230a0:	0021883a 	mov	r16,zero
   230a4:	d8c00217 	ldw	r3,8(sp)
   230a8:	18800120 	cmpeqi	r2,r3,4
   230ac:	10036d1e 	bne	r2,zero,23e64 <_dtoa_r+0x106c>
   230b0:	18800160 	cmpeqi	r2,r3,5
   230b4:	1003291e 	bne	r2,zero,23d5c <_dtoa_r+0xf64>
   230b8:	188000a0 	cmpeqi	r2,r3,2
   230bc:	10025926 	beq	r2,zero,23a24 <_dtoa_r+0xc2c>
   230c0:	d8000515 	stw	zero,20(sp)
   230c4:	d8801d17 	ldw	r2,116(sp)
   230c8:	0083340e 	bge	zero,r2,23d9c <_dtoa_r+0xfa4>
   230cc:	d8800b15 	stw	r2,44(sp)
   230d0:	d8800315 	stw	r2,12(sp)
   230d4:	100d883a 	mov	r6,r2
   230d8:	e0001115 	stw	zero,68(fp)
   230dc:	30800610 	cmplti	r2,r6,24
   230e0:	1004f61e 	bne	r2,zero,244bc <_dtoa_r+0x16c4>
   230e4:	00c00044 	movi	r3,1
   230e8:	00800104 	movi	r2,4
   230ec:	1085883a 	add	r2,r2,r2
   230f0:	11000504 	addi	r4,r2,20
   230f4:	180b883a 	mov	r5,r3
   230f8:	18c00044 	addi	r3,r3,1
   230fc:	313ffb2e 	bgeu	r6,r4,230ec <_dtoa_r+0x2f4>
   23100:	e1401115 	stw	r5,68(fp)
   23104:	e009883a 	mov	r4,fp
   23108:	00263f80 	call	263f8 <_Balloc>
   2310c:	d8800115 	stw	r2,4(sp)
   23110:	1004e326 	beq	r2,zero,244a0 <_dtoa_r+0x16a8>
   23114:	d8800117 	ldw	r2,4(sp)
   23118:	e0801015 	stw	r2,64(fp)
   2311c:	d8800317 	ldw	r2,12(sp)
   23120:	108003e8 	cmpgeui	r2,r2,15
   23124:	1001091e 	bne	r2,zero,2354c <_dtoa_r+0x754>
   23128:	80010826 	beq	r16,zero,2354c <_dtoa_r+0x754>
   2312c:	d9000617 	ldw	r4,24(sp)
   23130:	0103970e 	bge	zero,r4,23f90 <_dtoa_r+0x1198>
   23134:	208003cc 	andi	r2,r4,15
   23138:	100690fa 	slli	r3,r2,3
   2313c:	2029d13a 	srai	r20,r4,4
   23140:	008000f4 	movhi	r2,3
   23144:	10802704 	addi	r2,r2,156
   23148:	10c5883a 	add	r2,r2,r3
   2314c:	a0c0040c 	andi	r3,r20,16
   23150:	12800017 	ldw	r10,0(r2)
   23154:	12400117 	ldw	r9,4(r2)
   23158:	18033c26 	beq	r3,zero,23e4c <_dtoa_r+0x1054>
   2315c:	008000f4 	movhi	r2,3
   23160:	10801d04 	addi	r2,r2,116
   23164:	11800817 	ldw	r6,32(r2)
   23168:	11c00917 	ldw	r7,36(r2)
   2316c:	9809883a 	mov	r4,r19
   23170:	880b883a 	mov	r5,r17
   23174:	da400e15 	stw	r9,56(sp)
   23178:	da800d15 	stw	r10,52(sp)
   2317c:	002b7a00 	call	2b7a0 <__divdf3>
   23180:	da800d17 	ldw	r10,52(sp)
   23184:	da400e17 	ldw	r9,56(sp)
   23188:	a50003cc 	andi	r20,r20,15
   2318c:	d8800a15 	stw	r2,40(sp)
   23190:	d8c00c15 	stw	r3,48(sp)
   23194:	040000c4 	movi	r16,3
   23198:	a0001126 	beq	r20,zero,231e0 <_dtoa_r+0x3e8>
   2319c:	048000f4 	movhi	r18,3
   231a0:	94801d04 	addi	r18,r18,116
   231a4:	5009883a 	mov	r4,r10
   231a8:	480b883a 	mov	r5,r9
   231ac:	a180004c 	andi	r6,r20,1
   231b0:	30000626 	beq	r6,zero,231cc <_dtoa_r+0x3d4>
   231b4:	91800017 	ldw	r6,0(r18)
   231b8:	91c00117 	ldw	r7,4(r18)
   231bc:	84000044 	addi	r16,r16,1
   231c0:	002c2400 	call	2c240 <__muldf3>
   231c4:	1009883a 	mov	r4,r2
   231c8:	180b883a 	mov	r5,r3
   231cc:	a029d07a 	srai	r20,r20,1
   231d0:	94800204 	addi	r18,r18,8
   231d4:	a03ff51e 	bne	r20,zero,231ac <_dtoa_r+0x3b4>
   231d8:	2015883a 	mov	r10,r4
   231dc:	2813883a 	mov	r9,r5
   231e0:	d9000a17 	ldw	r4,40(sp)
   231e4:	d9400c17 	ldw	r5,48(sp)
   231e8:	500d883a 	mov	r6,r10
   231ec:	480f883a 	mov	r7,r9
   231f0:	002b7a00 	call	2b7a0 <__divdf3>
   231f4:	d8800a15 	stw	r2,40(sp)
   231f8:	1825883a 	mov	r18,r3
   231fc:	d8800817 	ldw	r2,32(sp)
   23200:	10000726 	beq	r2,zero,23220 <_dtoa_r+0x428>
   23204:	dd000a17 	ldw	r20,40(sp)
   23208:	000d883a 	mov	r6,zero
   2320c:	01cffc34 	movhi	r7,16368
   23210:	a009883a 	mov	r4,r20
   23214:	900b883a 	mov	r5,r18
   23218:	002c1580 	call	2c158 <__ledf2>
   2321c:	10044516 	blt	r2,zero,24334 <_dtoa_r+0x153c>
   23220:	8009883a 	mov	r4,r16
   23224:	002d2940 	call	2d294 <__floatsidf>
   23228:	d9800a17 	ldw	r6,40(sp)
   2322c:	900f883a 	mov	r7,r18
   23230:	1009883a 	mov	r4,r2
   23234:	180b883a 	mov	r5,r3
   23238:	002c2400 	call	2c240 <__muldf3>
   2323c:	000d883a 	mov	r6,zero
   23240:	01d00734 	movhi	r7,16412
   23244:	1009883a 	mov	r4,r2
   23248:	180b883a 	mov	r5,r3
   2324c:	002aeb00 	call	2aeb0 <__adddf3>
   23250:	1029883a 	mov	r20,r2
   23254:	00bf3034 	movhi	r2,64704
   23258:	1885883a 	add	r2,r3,r2
   2325c:	d8800c15 	stw	r2,48(sp)
   23260:	d8800317 	ldw	r2,12(sp)
   23264:	10032d26 	beq	r2,zero,23f1c <_dtoa_r+0x1124>
   23268:	d8800617 	ldw	r2,24(sp)
   2326c:	d8801015 	stw	r2,64(sp)
   23270:	d8800317 	ldw	r2,12(sp)
   23274:	d8800d15 	stw	r2,52(sp)
   23278:	d8800d17 	ldw	r2,52(sp)
   2327c:	dc000a17 	ldw	r16,40(sp)
   23280:	900b883a 	mov	r5,r18
   23284:	10bfffc4 	addi	r2,r2,-1
   23288:	100690fa 	slli	r3,r2,3
   2328c:	008000f4 	movhi	r2,3
   23290:	10802704 	addi	r2,r2,156
   23294:	10c5883a 	add	r2,r2,r3
   23298:	12c00017 	ldw	r11,0(r2)
   2329c:	13000117 	ldw	r12,4(r2)
   232a0:	8009883a 	mov	r4,r16
   232a4:	dac00e15 	stw	r11,56(sp)
   232a8:	db000a15 	stw	r12,40(sp)
   232ac:	002d2140 	call	2d214 <__fixdfsi>
   232b0:	1009883a 	mov	r4,r2
   232b4:	10800c04 	addi	r2,r2,48
   232b8:	d8800f15 	stw	r2,60(sp)
   232bc:	002d2940 	call	2d294 <__floatsidf>
   232c0:	8009883a 	mov	r4,r16
   232c4:	100d883a 	mov	r6,r2
   232c8:	180f883a 	mov	r7,r3
   232cc:	900b883a 	mov	r5,r18
   232d0:	002c8b40 	call	2c8b4 <__subdf3>
   232d4:	d9000117 	ldw	r4,4(sp)
   232d8:	dac00e17 	ldw	r11,56(sp)
   232dc:	db000a17 	ldw	r12,40(sp)
   232e0:	1825883a 	mov	r18,r3
   232e4:	d8c00517 	ldw	r3,20(sp)
   232e8:	22000044 	addi	r8,r4,1
   232ec:	da000e15 	stw	r8,56(sp)
   232f0:	1021883a 	mov	r16,r2
   232f4:	580d883a 	mov	r6,r11
   232f8:	600f883a 	mov	r7,r12
   232fc:	1803b226 	beq	r3,zero,241c8 <_dtoa_r+0x13d0>
   23300:	0009883a 	mov	r4,zero
   23304:	014ff834 	movhi	r5,16352
   23308:	002b7a00 	call	2b7a0 <__divdf3>
   2330c:	d9c00c17 	ldw	r7,48(sp)
   23310:	a00d883a 	mov	r6,r20
   23314:	1009883a 	mov	r4,r2
   23318:	180b883a 	mov	r5,r3
   2331c:	002c8b40 	call	2c8b4 <__subdf3>
   23320:	d9000117 	ldw	r4,4(sp)
   23324:	1029883a 	mov	r20,r2
   23328:	d8800f17 	ldw	r2,60(sp)
   2332c:	800d883a 	mov	r6,r16
   23330:	900f883a 	mov	r7,r18
   23334:	20800005 	stb	r2,0(r4)
   23338:	180b883a 	mov	r5,r3
   2333c:	a009883a 	mov	r4,r20
   23340:	d8c00a15 	stw	r3,40(sp)
   23344:	002c0700 	call	2c070 <__gedf2>
   23348:	da000e17 	ldw	r8,56(sp)
   2334c:	0083e516 	blt	zero,r2,242e4 <_dtoa_r+0x14ec>
   23350:	0005883a 	mov	r2,zero
   23354:	dd400e15 	stw	r21,56(sp)
   23358:	dd800f15 	stw	r22,60(sp)
   2335c:	ddc00c15 	stw	r23,48(sp)
   23360:	dd800d17 	ldw	r22,52(sp)
   23364:	402b883a 	mov	r21,r8
   23368:	dc400d15 	stw	r17,52(sp)
   2336c:	dc400a17 	ldw	r17,40(sp)
   23370:	dcc00a15 	stw	r19,40(sp)
   23374:	1027883a 	mov	r19,r2
   23378:	00002606 	br	23414 <_dtoa_r+0x61c>
   2337c:	9cc00044 	addi	r19,r19,1
   23380:	9d806d0e 	bge	r19,r22,23538 <_dtoa_r+0x740>
   23384:	a009883a 	mov	r4,r20
   23388:	880b883a 	mov	r5,r17
   2338c:	000d883a 	mov	r6,zero
   23390:	01d00934 	movhi	r7,16420
   23394:	002c2400 	call	2c240 <__muldf3>
   23398:	000d883a 	mov	r6,zero
   2339c:	01d00934 	movhi	r7,16420
   233a0:	8009883a 	mov	r4,r16
   233a4:	900b883a 	mov	r5,r18
   233a8:	1029883a 	mov	r20,r2
   233ac:	1823883a 	mov	r17,r3
   233b0:	002c2400 	call	2c240 <__muldf3>
   233b4:	180b883a 	mov	r5,r3
   233b8:	1009883a 	mov	r4,r2
   233bc:	1821883a 	mov	r16,r3
   233c0:	1025883a 	mov	r18,r2
   233c4:	002d2140 	call	2d214 <__fixdfsi>
   233c8:	1009883a 	mov	r4,r2
   233cc:	102f883a 	mov	r23,r2
   233d0:	002d2940 	call	2d294 <__floatsidf>
   233d4:	9009883a 	mov	r4,r18
   233d8:	800b883a 	mov	r5,r16
   233dc:	100d883a 	mov	r6,r2
   233e0:	180f883a 	mov	r7,r3
   233e4:	002c8b40 	call	2c8b4 <__subdf3>
   233e8:	ad400044 	addi	r21,r21,1
   233ec:	ba000c04 	addi	r8,r23,48
   233f0:	aa3fffc5 	stb	r8,-1(r21)
   233f4:	a00d883a 	mov	r6,r20
   233f8:	880f883a 	mov	r7,r17
   233fc:	1009883a 	mov	r4,r2
   23400:	180b883a 	mov	r5,r3
   23404:	1021883a 	mov	r16,r2
   23408:	1825883a 	mov	r18,r3
   2340c:	002c1580 	call	2c158 <__ledf2>
   23410:	10040516 	blt	r2,zero,24428 <_dtoa_r+0x1630>
   23414:	800d883a 	mov	r6,r16
   23418:	900f883a 	mov	r7,r18
   2341c:	0009883a 	mov	r4,zero
   23420:	014ffc34 	movhi	r5,16368
   23424:	002c8b40 	call	2c8b4 <__subdf3>
   23428:	a00d883a 	mov	r6,r20
   2342c:	880f883a 	mov	r7,r17
   23430:	1009883a 	mov	r4,r2
   23434:	180b883a 	mov	r5,r3
   23438:	002c1580 	call	2c158 <__ledf2>
   2343c:	103fcf0e 	bge	r2,zero,2337c <_dtoa_r+0x584>
   23440:	d8801017 	ldw	r2,64(sp)
   23444:	ddc00c17 	ldw	r23,48(sp)
   23448:	d9000117 	ldw	r4,4(sp)
   2344c:	a829883a 	mov	r20,r21
   23450:	14c00044 	addi	r19,r2,1
   23454:	00000106 	br	2345c <_dtoa_r+0x664>
   23458:	a103d826 	beq	r20,r4,243bc <_dtoa_r+0x15c4>
   2345c:	a0ffffc3 	ldbu	r3,-1(r20)
   23460:	a011883a 	mov	r8,r20
   23464:	a53fffc4 	addi	r20,r20,-1
   23468:	18803fcc 	andi	r2,r3,255
   2346c:	1080201c 	xori	r2,r2,128
   23470:	10bfe004 	addi	r2,r2,-128
   23474:	10800e60 	cmpeqi	r2,r2,57
   23478:	103ff71e 	bne	r2,zero,23458 <_dtoa_r+0x660>
   2347c:	18c00044 	addi	r3,r3,1
   23480:	a0c00005 	stb	r3,0(r20)
   23484:	dcc00215 	stw	r19,8(sp)
   23488:	00014406 	br	2399c <_dtoa_r+0xba4>
   2348c:	04600034 	movhi	r17,32768
   23490:	8c7fffc4 	addi	r17,r17,-1
   23494:	9462703a 	and	r17,r18,r17
   23498:	00800044 	movi	r2,1
   2349c:	8825883a 	mov	r18,r17
   234a0:	80800015 	stw	r2,0(r16)
   234a4:	00dffc34 	movhi	r3,32752
   234a8:	909ffc2c 	andhi	r2,r18,32752
   234ac:	10fe721e 	bne	r2,r3,22e78 <_dtoa_r+0x80>
   234b0:	d9001e17 	ldw	r4,120(sp)
   234b4:	00800434 	movhi	r2,16
   234b8:	10bfffc4 	addi	r2,r2,-1
   234bc:	9084703a 	and	r2,r18,r2
   234c0:	00c9c3c4 	movi	r3,9999
   234c4:	20c00015 	stw	r3,0(r4)
   234c8:	14e6b03a 	or	r19,r2,r19
   234cc:	9800141e 	bne	r19,zero,23520 <_dtoa_r+0x728>
   234d0:	d8802017 	ldw	r2,128(sp)
   234d4:	10041126 	beq	r2,zero,2451c <_dtoa_r+0x1724>
   234d8:	008000f4 	movhi	r2,3
   234dc:	1007883a 	mov	r3,r2
   234e0:	18ffea04 	addi	r3,r3,-88
   234e4:	008000f4 	movhi	r2,3
   234e8:	d8c00115 	stw	r3,4(sp)
   234ec:	10bfec04 	addi	r2,r2,-80
   234f0:	d8c02017 	ldw	r3,128(sp)
   234f4:	18800015 	stw	r2,0(r3)
   234f8:	003e7106 	br	22ec0 <_dtoa_r+0xc8>
   234fc:	01400434 	movhi	r5,16
   23500:	297fffc4 	addi	r5,r5,-1
   23504:	894a703a 	and	r5,r17,r5
   23508:	dd001117 	ldw	r20,68(sp)
   2350c:	9809883a 	mov	r4,r19
   23510:	294ffc34 	orhi	r5,r5,16368
   23514:	843f0044 	addi	r16,r16,-1023
   23518:	d8000915 	stw	zero,36(sp)
   2351c:	003e9206 	br	22f68 <_dtoa_r+0x170>
   23520:	d8802017 	ldw	r2,128(sp)
   23524:	1002061e 	bne	r2,zero,23d40 <_dtoa_r+0xf48>
   23528:	008000f4 	movhi	r2,3
   2352c:	10bfe904 	addi	r2,r2,-92
   23530:	d8800115 	stw	r2,4(sp)
   23534:	003e6206 	br	22ec0 <_dtoa_r+0xc8>
   23538:	dd400e17 	ldw	r21,56(sp)
   2353c:	dd800f17 	ldw	r22,60(sp)
   23540:	ddc00c17 	ldw	r23,48(sp)
   23544:	dc400d17 	ldw	r17,52(sp)
   23548:	dcc00a17 	ldw	r19,40(sp)
   2354c:	d8801217 	ldw	r2,72(sp)
   23550:	10006e16 	blt	r2,zero,2370c <_dtoa_r+0x914>
   23554:	d9000617 	ldw	r4,24(sp)
   23558:	20c003c8 	cmpgei	r3,r4,15
   2355c:	18006b1e 	bne	r3,zero,2370c <_dtoa_r+0x914>
   23560:	200690fa 	slli	r3,r4,3
   23564:	008000f4 	movhi	r2,3
   23568:	10802704 	addi	r2,r2,156
   2356c:	10c5883a 	add	r2,r2,r3
   23570:	14000017 	ldw	r16,0(r2)
   23574:	14800117 	ldw	r18,4(r2)
   23578:	d8801d17 	ldw	r2,116(sp)
   2357c:	1000150e 	bge	r2,zero,235d4 <_dtoa_r+0x7dc>
   23580:	d8800317 	ldw	r2,12(sp)
   23584:	00801316 	blt	zero,r2,235d4 <_dtoa_r+0x7dc>
   23588:	d8800317 	ldw	r2,12(sp)
   2358c:	1002771e 	bne	r2,zero,23f6c <_dtoa_r+0x1174>
   23590:	8009883a 	mov	r4,r16
   23594:	000d883a 	mov	r6,zero
   23598:	01d00534 	movhi	r7,16404
   2359c:	900b883a 	mov	r5,r18
   235a0:	002c2400 	call	2c240 <__muldf3>
   235a4:	100d883a 	mov	r6,r2
   235a8:	180f883a 	mov	r7,r3
   235ac:	9809883a 	mov	r4,r19
   235b0:	880b883a 	mov	r5,r17
   235b4:	002c1580 	call	2c158 <__ledf2>
   235b8:	0029883a 	mov	r20,zero
   235bc:	0021883a 	mov	r16,zero
   235c0:	00820916 	blt	zero,r2,23de8 <_dtoa_r+0xff0>
   235c4:	d8801d17 	ldw	r2,116(sp)
   235c8:	da000117 	ldw	r8,4(sp)
   235cc:	00a6303a 	nor	r19,zero,r2
   235d0:	00020b06 	br	23e00 <_dtoa_r+0x1008>
   235d4:	800d883a 	mov	r6,r16
   235d8:	900f883a 	mov	r7,r18
   235dc:	9809883a 	mov	r4,r19
   235e0:	880b883a 	mov	r5,r17
   235e4:	002b7a00 	call	2b7a0 <__divdf3>
   235e8:	180b883a 	mov	r5,r3
   235ec:	1009883a 	mov	r4,r2
   235f0:	002d2140 	call	2d214 <__fixdfsi>
   235f4:	1009883a 	mov	r4,r2
   235f8:	102b883a 	mov	r21,r2
   235fc:	002d2940 	call	2d294 <__floatsidf>
   23600:	800d883a 	mov	r6,r16
   23604:	900f883a 	mov	r7,r18
   23608:	1009883a 	mov	r4,r2
   2360c:	180b883a 	mov	r5,r3
   23610:	002c2400 	call	2c240 <__muldf3>
   23614:	100d883a 	mov	r6,r2
   23618:	9809883a 	mov	r4,r19
   2361c:	880b883a 	mov	r5,r17
   23620:	180f883a 	mov	r7,r3
   23624:	002c8b40 	call	2c8b4 <__subdf3>
   23628:	d9800117 	ldw	r6,4(sp)
   2362c:	dd800317 	ldw	r22,12(sp)
   23630:	1009883a 	mov	r4,r2
   23634:	a8800c04 	addi	r2,r21,48
   23638:	30800005 	stb	r2,0(r6)
   2363c:	b0800060 	cmpeqi	r2,r22,1
   23640:	180b883a 	mov	r5,r3
   23644:	35000044 	addi	r20,r6,1
   23648:	10029c1e 	bne	r2,zero,240bc <_dtoa_r+0x12c4>
   2364c:	04400044 	movi	r17,1
   23650:	ddc00215 	stw	r23,8(sp)
   23654:	00001c06 	br	236c8 <_dtoa_r+0x8d0>
   23658:	800d883a 	mov	r6,r16
   2365c:	900f883a 	mov	r7,r18
   23660:	a809883a 	mov	r4,r21
   23664:	980b883a 	mov	r5,r19
   23668:	002b7a00 	call	2b7a0 <__divdf3>
   2366c:	180b883a 	mov	r5,r3
   23670:	1009883a 	mov	r4,r2
   23674:	002d2140 	call	2d214 <__fixdfsi>
   23678:	1009883a 	mov	r4,r2
   2367c:	102f883a 	mov	r23,r2
   23680:	002d2940 	call	2d294 <__floatsidf>
   23684:	800d883a 	mov	r6,r16
   23688:	900f883a 	mov	r7,r18
   2368c:	1009883a 	mov	r4,r2
   23690:	180b883a 	mov	r5,r3
   23694:	002c2400 	call	2c240 <__muldf3>
   23698:	a809883a 	mov	r4,r21
   2369c:	980b883a 	mov	r5,r19
   236a0:	100d883a 	mov	r6,r2
   236a4:	180f883a 	mov	r7,r3
   236a8:	002c8b40 	call	2c8b4 <__subdf3>
   236ac:	b9000c04 	addi	r4,r23,48
   236b0:	a1000005 	stb	r4,0(r20)
   236b4:	8c400044 	addi	r17,r17,1
   236b8:	a5000044 	addi	r20,r20,1
   236bc:	1009883a 	mov	r4,r2
   236c0:	180b883a 	mov	r5,r3
   236c4:	b4427b26 	beq	r22,r17,240b4 <_dtoa_r+0x12bc>
   236c8:	000d883a 	mov	r6,zero
   236cc:	01d00934 	movhi	r7,16420
   236d0:	002c2400 	call	2c240 <__muldf3>
   236d4:	000d883a 	mov	r6,zero
   236d8:	000f883a 	mov	r7,zero
   236dc:	1009883a 	mov	r4,r2
   236e0:	180b883a 	mov	r5,r3
   236e4:	102b883a 	mov	r21,r2
   236e8:	1827883a 	mov	r19,r3
   236ec:	002bff00 	call	2bff0 <__eqdf2>
   236f0:	103fd91e 	bne	r2,zero,23658 <_dtoa_r+0x860>
   236f4:	d8800617 	ldw	r2,24(sp)
   236f8:	ddc00217 	ldw	r23,8(sp)
   236fc:	a011883a 	mov	r8,r20
   23700:	10800044 	addi	r2,r2,1
   23704:	d8800215 	stw	r2,8(sp)
   23708:	0000a406 	br	2399c <_dtoa_r+0xba4>
   2370c:	d8c00517 	ldw	r3,20(sp)
   23710:	1800e726 	beq	r3,zero,23ab0 <_dtoa_r+0xcb8>
   23714:	d8c00217 	ldw	r3,8(sp)
   23718:	18c00088 	cmpgei	r3,r3,2
   2371c:	1801e526 	beq	r3,zero,23eb4 <_dtoa_r+0x10bc>
   23720:	d8800317 	ldw	r2,12(sp)
   23724:	153fffc4 	addi	r20,r2,-1
   23728:	d8800717 	ldw	r2,28(sp)
   2372c:	1501c50e 	bge	r2,r20,23e44 <_dtoa_r+0x104c>
   23730:	d8800717 	ldw	r2,28(sp)
   23734:	dd000715 	stw	r20,28(sp)
   23738:	a085c83a 	sub	r2,r20,r2
   2373c:	a8ab883a 	add	r21,r21,r2
   23740:	0029883a 	mov	r20,zero
   23744:	d8800317 	ldw	r2,12(sp)
   23748:	10028b16 	blt	r2,zero,24178 <_dtoa_r+0x1380>
   2374c:	d8c00417 	ldw	r3,16(sp)
   23750:	b0ad883a 	add	r22,r22,r2
   23754:	1885883a 	add	r2,r3,r2
   23758:	1825883a 	mov	r18,r3
   2375c:	d8800415 	stw	r2,16(sp)
   23760:	01400044 	movi	r5,1
   23764:	e009883a 	mov	r4,fp
   23768:	00268440 	call	26844 <__i2b>
   2376c:	1021883a 	mov	r16,r2
   23770:	0480080e 	bge	zero,r18,23794 <_dtoa_r+0x99c>
   23774:	0580070e 	bge	zero,r22,23794 <_dtoa_r+0x99c>
   23778:	9005883a 	mov	r2,r18
   2377c:	b481a916 	blt	r22,r18,23e24 <_dtoa_r+0x102c>
   23780:	d8c00417 	ldw	r3,16(sp)
   23784:	90a5c83a 	sub	r18,r18,r2
   23788:	b0adc83a 	sub	r22,r22,r2
   2378c:	1887c83a 	sub	r3,r3,r2
   23790:	d8c00415 	stw	r3,16(sp)
   23794:	d8800717 	ldw	r2,28(sp)
   23798:	10001526 	beq	r2,zero,237f0 <_dtoa_r+0x9f8>
   2379c:	d8800517 	ldw	r2,20(sp)
   237a0:	1001f526 	beq	r2,zero,23f78 <_dtoa_r+0x1180>
   237a4:	05000f0e 	bge	zero,r20,237e4 <_dtoa_r+0x9ec>
   237a8:	800b883a 	mov	r5,r16
   237ac:	a00d883a 	mov	r6,r20
   237b0:	e009883a 	mov	r4,fp
   237b4:	0026b480 	call	26b48 <__pow5mult>
   237b8:	b80d883a 	mov	r6,r23
   237bc:	100b883a 	mov	r5,r2
   237c0:	e009883a 	mov	r4,fp
   237c4:	1021883a 	mov	r16,r2
   237c8:	00268f40 	call	268f4 <__multiply>
   237cc:	b80b883a 	mov	r5,r23
   237d0:	e009883a 	mov	r4,fp
   237d4:	d8800915 	stw	r2,36(sp)
   237d8:	002649c0 	call	2649c <_Bfree>
   237dc:	d8800917 	ldw	r2,36(sp)
   237e0:	102f883a 	mov	r23,r2
   237e4:	d8800717 	ldw	r2,28(sp)
   237e8:	150dc83a 	sub	r6,r2,r20
   237ec:	15025d1e 	bne	r2,r20,24164 <_dtoa_r+0x136c>
   237f0:	01400044 	movi	r5,1
   237f4:	e009883a 	mov	r4,fp
   237f8:	00268440 	call	26844 <__i2b>
   237fc:	1029883a 	mov	r20,r2
   23800:	0540bd16 	blt	zero,r21,23af8 <_dtoa_r+0xd00>
   23804:	d8800217 	ldw	r2,8(sp)
   23808:	10800088 	cmpgei	r2,r2,2
   2380c:	10015626 	beq	r2,zero,23d68 <_dtoa_r+0xf70>
   23810:	0023883a 	mov	r17,zero
   23814:	00800044 	movi	r2,1
   23818:	a800c01e 	bne	r21,zero,23b1c <_dtoa_r+0xd24>
   2381c:	1585883a 	add	r2,r2,r22
   23820:	108007cc 	andi	r2,r2,31
   23824:	1000ac26 	beq	r2,zero,23ad8 <_dtoa_r+0xce0>
   23828:	00c00804 	movi	r3,32
   2382c:	1887c83a 	sub	r3,r3,r2
   23830:	19000150 	cmplti	r4,r3,5
   23834:	20033d1e 	bne	r4,zero,2452c <_dtoa_r+0x1734>
   23838:	00c00704 	movi	r3,28
   2383c:	1885c83a 	sub	r2,r3,r2
   23840:	d8c00417 	ldw	r3,16(sp)
   23844:	90a5883a 	add	r18,r18,r2
   23848:	b0ad883a 	add	r22,r22,r2
   2384c:	1887883a 	add	r3,r3,r2
   23850:	d8c00415 	stw	r3,16(sp)
   23854:	d8800417 	ldw	r2,16(sp)
   23858:	00809916 	blt	zero,r2,23ac0 <_dtoa_r+0xcc8>
   2385c:	0580050e 	bge	zero,r22,23874 <_dtoa_r+0xa7c>
   23860:	a00b883a 	mov	r5,r20
   23864:	b00d883a 	mov	r6,r22
   23868:	e009883a 	mov	r4,fp
   2386c:	0026c900 	call	26c90 <__lshift>
   23870:	1029883a 	mov	r20,r2
   23874:	d8800817 	ldw	r2,32(sp)
   23878:	10011d1e 	bne	r2,zero,23cf0 <_dtoa_r+0xef8>
   2387c:	d8800317 	ldw	r2,12(sp)
   23880:	00810a0e 	bge	zero,r2,23cac <_dtoa_r+0xeb4>
   23884:	d8800517 	ldw	r2,20(sp)
   23888:	1000b71e 	bne	r2,zero,23b68 <_dtoa_r+0xd70>
   2388c:	d8800617 	ldw	r2,24(sp)
   23890:	10800044 	addi	r2,r2,1
   23894:	d8800215 	stw	r2,8(sp)
   23898:	dc800317 	ldw	r18,12(sp)
   2389c:	dd400117 	ldw	r21,4(sp)
   238a0:	04400044 	movi	r17,1
   238a4:	00000706 	br	238c4 <_dtoa_r+0xacc>
   238a8:	b80b883a 	mov	r5,r23
   238ac:	000f883a 	mov	r7,zero
   238b0:	01800284 	movi	r6,10
   238b4:	e009883a 	mov	r4,fp
   238b8:	00264c00 	call	264c0 <__multadd>
   238bc:	102f883a 	mov	r23,r2
   238c0:	8c400044 	addi	r17,r17,1
   238c4:	a00b883a 	mov	r5,r20
   238c8:	b809883a 	mov	r4,r23
   238cc:	0022bfc0 	call	22bfc <quorem>
   238d0:	14c00c04 	addi	r19,r2,48
   238d4:	ac45883a 	add	r2,r21,r17
   238d8:	14ffffc5 	stb	r19,-1(r2)
   238dc:	8cbff216 	blt	r17,r18,238a8 <_dtoa_r+0xab0>
   238e0:	d8800317 	ldw	r2,12(sp)
   238e4:	00815d0e 	bge	zero,r2,23e5c <_dtoa_r+0x1064>
   238e8:	d8c00117 	ldw	r3,4(sp)
   238ec:	0023883a 	mov	r17,zero
   238f0:	1891883a 	add	r8,r3,r2
   238f4:	b80b883a 	mov	r5,r23
   238f8:	01800044 	movi	r6,1
   238fc:	e009883a 	mov	r4,fp
   23900:	da000315 	stw	r8,12(sp)
   23904:	0026c900 	call	26c90 <__lshift>
   23908:	a00b883a 	mov	r5,r20
   2390c:	1009883a 	mov	r4,r2
   23910:	102f883a 	mov	r23,r2
   23914:	0026e180 	call	26e18 <__mcmp>
   23918:	da000317 	ldw	r8,12(sp)
   2391c:	0081540e 	bge	zero,r2,23e70 <_dtoa_r+0x1078>
   23920:	413fffc3 	ldbu	r4,-1(r8)
   23924:	d9400117 	ldw	r5,4(sp)
   23928:	00000306 	br	23938 <_dtoa_r+0xb40>
   2392c:	28c15a26 	beq	r5,r3,23e98 <_dtoa_r+0x10a0>
   23930:	193fffc3 	ldbu	r4,-1(r3)
   23934:	1811883a 	mov	r8,r3
   23938:	20803fcc 	andi	r2,r4,255
   2393c:	1080201c 	xori	r2,r2,128
   23940:	10bfe004 	addi	r2,r2,-128
   23944:	10800e60 	cmpeqi	r2,r2,57
   23948:	40ffffc4 	addi	r3,r8,-1
   2394c:	103ff71e 	bne	r2,zero,2392c <_dtoa_r+0xb34>
   23950:	21000044 	addi	r4,r4,1
   23954:	19000005 	stb	r4,0(r3)
   23958:	a00b883a 	mov	r5,r20
   2395c:	e009883a 	mov	r4,fp
   23960:	da000315 	stw	r8,12(sp)
   23964:	002649c0 	call	2649c <_Bfree>
   23968:	da000317 	ldw	r8,12(sp)
   2396c:	80000b26 	beq	r16,zero,2399c <_dtoa_r+0xba4>
   23970:	88000526 	beq	r17,zero,23988 <_dtoa_r+0xb90>
   23974:	8c000426 	beq	r17,r16,23988 <_dtoa_r+0xb90>
   23978:	880b883a 	mov	r5,r17
   2397c:	e009883a 	mov	r4,fp
   23980:	002649c0 	call	2649c <_Bfree>
   23984:	da000317 	ldw	r8,12(sp)
   23988:	800b883a 	mov	r5,r16
   2398c:	e009883a 	mov	r4,fp
   23990:	da000315 	stw	r8,12(sp)
   23994:	002649c0 	call	2649c <_Bfree>
   23998:	da000317 	ldw	r8,12(sp)
   2399c:	b80b883a 	mov	r5,r23
   239a0:	e009883a 	mov	r4,fp
   239a4:	da000315 	stw	r8,12(sp)
   239a8:	002649c0 	call	2649c <_Bfree>
   239ac:	da000317 	ldw	r8,12(sp)
   239b0:	d8801e17 	ldw	r2,120(sp)
   239b4:	d8c00217 	ldw	r3,8(sp)
   239b8:	40000005 	stb	zero,0(r8)
   239bc:	10c00015 	stw	r3,0(r2)
   239c0:	d8802017 	ldw	r2,128(sp)
   239c4:	103d3e26 	beq	r2,zero,22ec0 <_dtoa_r+0xc8>
   239c8:	12000015 	stw	r8,0(r2)
   239cc:	003d3c06 	br	22ec0 <_dtoa_r+0xc8>
   239d0:	d8000815 	stw	zero,32(sp)
   239d4:	b0002316 	blt	r22,zero,23a64 <_dtoa_r+0xc6c>
   239d8:	d8000415 	stw	zero,16(sp)
   239dc:	d8c00217 	ldw	r3,8(sp)
   239e0:	dd400615 	stw	r21,24(sp)
   239e4:	d8000715 	stw	zero,28(sp)
   239e8:	188002a8 	cmpgeui	r2,r3,10
   239ec:	b56d883a 	add	r22,r22,r21
   239f0:	103da726 	beq	r2,zero,23090 <_dtoa_r+0x298>
   239f4:	00800044 	movi	r2,1
   239f8:	d8800515 	stw	r2,20(sp)
   239fc:	00bfffc4 	movi	r2,-1
   23a00:	04000044 	movi	r16,1
   23a04:	d8000215 	stw	zero,8(sp)
   23a08:	d8800315 	stw	r2,12(sp)
   23a0c:	d8001d15 	stw	zero,116(sp)
   23a10:	d8800317 	ldw	r2,12(sp)
   23a14:	e0001115 	stw	zero,68(fp)
   23a18:	000b883a 	mov	r5,zero
   23a1c:	d8800b15 	stw	r2,44(sp)
   23a20:	003db806 	br	23104 <_dtoa_r+0x30c>
   23a24:	188000e0 	cmpeqi	r2,r3,3
   23a28:	d8000515 	stw	zero,20(sp)
   23a2c:	1002a526 	beq	r2,zero,244c4 <_dtoa_r+0x16cc>
   23a30:	d8801d17 	ldw	r2,116(sp)
   23a34:	d8c00617 	ldw	r3,24(sp)
   23a38:	10c5883a 	add	r2,r2,r3
   23a3c:	d8800b15 	stw	r2,44(sp)
   23a40:	10800044 	addi	r2,r2,1
   23a44:	d8800315 	stw	r2,12(sp)
   23a48:	100d883a 	mov	r6,r2
   23a4c:	00bda216 	blt	zero,r2,230d8 <_dtoa_r+0x2e0>
   23a50:	01800044 	movi	r6,1
   23a54:	003da006 	br	230d8 <_dtoa_r+0x2e0>
   23a58:	00800044 	movi	r2,1
   23a5c:	d8800815 	stw	r2,32(sp)
   23a60:	b03d7f0e 	bge	r22,zero,23060 <_dtoa_r+0x268>
   23a64:	00800044 	movi	r2,1
   23a68:	1405c83a 	sub	r2,r2,r16
   23a6c:	d8800415 	stw	r2,16(sp)
   23a70:	002d883a 	mov	r22,zero
   23a74:	003d7b06 	br	23064 <_dtoa_r+0x26c>
   23a78:	a809883a 	mov	r4,r21
   23a7c:	002d2940 	call	2d294 <__floatsidf>
   23a80:	900d883a 	mov	r6,r18
   23a84:	b00f883a 	mov	r7,r22
   23a88:	1009883a 	mov	r4,r2
   23a8c:	180b883a 	mov	r5,r3
   23a90:	002bff00 	call	2bff0 <__eqdf2>
   23a94:	103d6126 	beq	r2,zero,2301c <_dtoa_r+0x224>
   23a98:	ad7fffc4 	addi	r21,r21,-1
   23a9c:	003d5f06 	br	2301c <_dtoa_r+0x224>
   23aa0:	008000f4 	movhi	r2,3
   23aa4:	10bfe004 	addi	r2,r2,-128
   23aa8:	d8800115 	stw	r2,4(sp)
   23aac:	003d0406 	br	22ec0 <_dtoa_r+0xc8>
   23ab0:	dd000717 	ldw	r20,28(sp)
   23ab4:	dc800417 	ldw	r18,16(sp)
   23ab8:	0021883a 	mov	r16,zero
   23abc:	003f2c06 	br	23770 <_dtoa_r+0x978>
   23ac0:	b80b883a 	mov	r5,r23
   23ac4:	100d883a 	mov	r6,r2
   23ac8:	e009883a 	mov	r4,fp
   23acc:	0026c900 	call	26c90 <__lshift>
   23ad0:	102f883a 	mov	r23,r2
   23ad4:	003f6106 	br	2385c <_dtoa_r+0xa64>
   23ad8:	00800704 	movi	r2,28
   23adc:	003f5806 	br	23840 <_dtoa_r+0xa48>
   23ae0:	01000804 	movi	r4,32
   23ae4:	2089c83a 	sub	r4,r4,r2
   23ae8:	9908983a 	sll	r4,r19,r4
   23aec:	003d1706 	br	22f4c <_dtoa_r+0x154>
   23af0:	04000044 	movi	r16,1
   23af4:	003d6b06 	br	230a4 <_dtoa_r+0x2ac>
   23af8:	100b883a 	mov	r5,r2
   23afc:	a80d883a 	mov	r6,r21
   23b00:	e009883a 	mov	r4,fp
   23b04:	0026b480 	call	26b48 <__pow5mult>
   23b08:	d8c00217 	ldw	r3,8(sp)
   23b0c:	1029883a 	mov	r20,r2
   23b10:	18c00090 	cmplti	r3,r3,2
   23b14:	18014b1e 	bne	r3,zero,24044 <_dtoa_r+0x124c>
   23b18:	0023883a 	mov	r17,zero
   23b1c:	a0800417 	ldw	r2,16(r20)
   23b20:	10800104 	addi	r2,r2,4
   23b24:	100490ba 	slli	r2,r2,2
   23b28:	a085883a 	add	r2,r20,r2
   23b2c:	11000017 	ldw	r4,0(r2)
   23b30:	00267300 	call	26730 <__hi0bits>
   23b34:	00c00804 	movi	r3,32
   23b38:	1885c83a 	sub	r2,r3,r2
   23b3c:	003f3706 	br	2381c <_dtoa_r+0xa24>
   23b40:	800b883a 	mov	r5,r16
   23b44:	000f883a 	mov	r7,zero
   23b48:	01800284 	movi	r6,10
   23b4c:	e009883a 	mov	r4,fp
   23b50:	00264c00 	call	264c0 <__multadd>
   23b54:	1021883a 	mov	r16,r2
   23b58:	d8800b17 	ldw	r2,44(sp)
   23b5c:	0082460e 	bge	zero,r2,24478 <_dtoa_r+0x1680>
   23b60:	dd400615 	stw	r21,24(sp)
   23b64:	d8800315 	stw	r2,12(sp)
   23b68:	0480b016 	blt	zero,r18,23e2c <_dtoa_r+0x1034>
   23b6c:	88016c1e 	bne	r17,zero,24120 <_dtoa_r+0x1328>
   23b70:	8025883a 	mov	r18,r16
   23b74:	dd800117 	ldw	r22,4(sp)
   23b78:	d9000317 	ldw	r4,12(sp)
   23b7c:	98c0004c 	andi	r3,r19,1
   23b80:	b0bfffc4 	addi	r2,r22,-1
   23b84:	1105883a 	add	r2,r2,r4
   23b88:	d8800515 	stw	r2,20(sp)
   23b8c:	d8800217 	ldw	r2,8(sp)
   23b90:	d8c00815 	stw	r3,32(sp)
   23b94:	1884b03a 	or	r2,r3,r2
   23b98:	d8800715 	stw	r2,28(sp)
   23b9c:	00002b06 	br	23c4c <_dtoa_r+0xe54>
   23ba0:	b809883a 	mov	r4,r23
   23ba4:	d9400415 	stw	r5,16(sp)
   23ba8:	0026e180 	call	26e18 <__mcmp>
   23bac:	d9400417 	ldw	r5,16(sp)
   23bb0:	e009883a 	mov	r4,fp
   23bb4:	d8800315 	stw	r2,12(sp)
   23bb8:	002649c0 	call	2649c <_Bfree>
   23bbc:	d8800317 	ldw	r2,12(sp)
   23bc0:	1000021e 	bne	r2,zero,23bcc <_dtoa_r+0xdd4>
   23bc4:	d8c00717 	ldw	r3,28(sp)
   23bc8:	18021d26 	beq	r3,zero,24440 <_dtoa_r+0x1648>
   23bcc:	b2000044 	addi	r8,r22,1
   23bd0:	da000315 	stw	r8,12(sp)
   23bd4:	88012116 	blt	r17,zero,2405c <_dtoa_r+0x1264>
   23bd8:	d8c00217 	ldw	r3,8(sp)
   23bdc:	88e2b03a 	or	r17,r17,r3
   23be0:	d8c00817 	ldw	r3,32(sp)
   23be4:	1c62b03a 	or	r17,r3,r17
   23be8:	88011c26 	beq	r17,zero,2405c <_dtoa_r+0x1264>
   23bec:	00816616 	blt	zero,r2,24188 <_dtoa_r+0x1390>
   23bf0:	d8800517 	ldw	r2,20(sp)
   23bf4:	b4c00005 	stb	r19,0(r22)
   23bf8:	15816d26 	beq	r2,r22,241b0 <_dtoa_r+0x13b8>
   23bfc:	b80b883a 	mov	r5,r23
   23c00:	000f883a 	mov	r7,zero
   23c04:	01800284 	movi	r6,10
   23c08:	e009883a 	mov	r4,fp
   23c0c:	00264c00 	call	264c0 <__multadd>
   23c10:	102f883a 	mov	r23,r2
   23c14:	800b883a 	mov	r5,r16
   23c18:	000f883a 	mov	r7,zero
   23c1c:	01800284 	movi	r6,10
   23c20:	e009883a 	mov	r4,fp
   23c24:	84801d26 	beq	r16,r18,23c9c <_dtoa_r+0xea4>
   23c28:	00264c00 	call	264c0 <__multadd>
   23c2c:	900b883a 	mov	r5,r18
   23c30:	000f883a 	mov	r7,zero
   23c34:	01800284 	movi	r6,10
   23c38:	e009883a 	mov	r4,fp
   23c3c:	1021883a 	mov	r16,r2
   23c40:	00264c00 	call	264c0 <__multadd>
   23c44:	1025883a 	mov	r18,r2
   23c48:	dd800317 	ldw	r22,12(sp)
   23c4c:	a00b883a 	mov	r5,r20
   23c50:	b809883a 	mov	r4,r23
   23c54:	0022bfc0 	call	22bfc <quorem>
   23c58:	800b883a 	mov	r5,r16
   23c5c:	b809883a 	mov	r4,r23
   23c60:	102b883a 	mov	r21,r2
   23c64:	0026e180 	call	26e18 <__mcmp>
   23c68:	a00b883a 	mov	r5,r20
   23c6c:	900d883a 	mov	r6,r18
   23c70:	e009883a 	mov	r4,fp
   23c74:	1023883a 	mov	r17,r2
   23c78:	0026e700 	call	26e70 <__mdiff>
   23c7c:	100b883a 	mov	r5,r2
   23c80:	10800317 	ldw	r2,12(r2)
   23c84:	acc00c04 	addi	r19,r21,48
   23c88:	103fc526 	beq	r2,zero,23ba0 <_dtoa_r+0xda8>
   23c8c:	e009883a 	mov	r4,fp
   23c90:	002649c0 	call	2649c <_Bfree>
   23c94:	00800044 	movi	r2,1
   23c98:	003fcc06 	br	23bcc <_dtoa_r+0xdd4>
   23c9c:	00264c00 	call	264c0 <__multadd>
   23ca0:	1021883a 	mov	r16,r2
   23ca4:	1025883a 	mov	r18,r2
   23ca8:	003fe706 	br	23c48 <_dtoa_r+0xe50>
   23cac:	d8800217 	ldw	r2,8(sp)
   23cb0:	108000d0 	cmplti	r2,r2,3
   23cb4:	10004026 	beq	r2,zero,23db8 <_dtoa_r+0xfc0>
   23cb8:	d8800517 	ldw	r2,20(sp)
   23cbc:	103faa1e 	bne	r2,zero,23b68 <_dtoa_r+0xd70>
   23cc0:	a00b883a 	mov	r5,r20
   23cc4:	b809883a 	mov	r4,r23
   23cc8:	0022bfc0 	call	22bfc <quorem>
   23ccc:	14c00c04 	addi	r19,r2,48
   23cd0:	d8800117 	ldw	r2,4(sp)
   23cd4:	0023883a 	mov	r17,zero
   23cd8:	12000044 	addi	r8,r2,1
   23cdc:	14c00005 	stb	r19,0(r2)
   23ce0:	d8800617 	ldw	r2,24(sp)
   23ce4:	10800044 	addi	r2,r2,1
   23ce8:	d8800215 	stw	r2,8(sp)
   23cec:	003f0106 	br	238f4 <_dtoa_r+0xafc>
   23cf0:	a00b883a 	mov	r5,r20
   23cf4:	b809883a 	mov	r4,r23
   23cf8:	0026e180 	call	26e18 <__mcmp>
   23cfc:	103edf0e 	bge	r2,zero,2387c <_dtoa_r+0xa84>
   23d00:	b80b883a 	mov	r5,r23
   23d04:	000f883a 	mov	r7,zero
   23d08:	01800284 	movi	r6,10
   23d0c:	e009883a 	mov	r4,fp
   23d10:	00264c00 	call	264c0 <__multadd>
   23d14:	d8c00617 	ldw	r3,24(sp)
   23d18:	102f883a 	mov	r23,r2
   23d1c:	d8800517 	ldw	r2,20(sp)
   23d20:	1d7fffc4 	addi	r21,r3,-1
   23d24:	103f861e 	bne	r2,zero,23b40 <_dtoa_r+0xd48>
   23d28:	d8800b17 	ldw	r2,44(sp)
   23d2c:	0081cb0e 	bge	zero,r2,2445c <_dtoa_r+0x1664>
   23d30:	d8c00617 	ldw	r3,24(sp)
   23d34:	d8800315 	stw	r2,12(sp)
   23d38:	d8c00215 	stw	r3,8(sp)
   23d3c:	003ed606 	br	23898 <_dtoa_r+0xaa0>
   23d40:	008000f4 	movhi	r2,3
   23d44:	1007883a 	mov	r3,r2
   23d48:	18ffe904 	addi	r3,r3,-92
   23d4c:	008000f4 	movhi	r2,3
   23d50:	d8c00115 	stw	r3,4(sp)
   23d54:	10bfe9c4 	addi	r2,r2,-89
   23d58:	003de506 	br	234f0 <_dtoa_r+0x6f8>
   23d5c:	00800044 	movi	r2,1
   23d60:	d8800515 	stw	r2,20(sp)
   23d64:	003f3206 	br	23a30 <_dtoa_r+0xc38>
   23d68:	983ea91e 	bne	r19,zero,23810 <_dtoa_r+0xa18>
   23d6c:	00800434 	movhi	r2,16
   23d70:	10bfffc4 	addi	r2,r2,-1
   23d74:	8884703a 	and	r2,r17,r2
   23d78:	103ea51e 	bne	r2,zero,23810 <_dtoa_r+0xa18>
   23d7c:	8c5ffc2c 	andhi	r17,r17,32752
   23d80:	883ea326 	beq	r17,zero,23810 <_dtoa_r+0xa18>
   23d84:	d8800417 	ldw	r2,16(sp)
   23d88:	b5800044 	addi	r22,r22,1
   23d8c:	04400044 	movi	r17,1
   23d90:	10800044 	addi	r2,r2,1
   23d94:	d8800415 	stw	r2,16(sp)
   23d98:	003e9e06 	br	23814 <_dtoa_r+0xa1c>
   23d9c:	00800044 	movi	r2,1
   23da0:	d8800315 	stw	r2,12(sp)
   23da4:	d8801d15 	stw	r2,116(sp)
   23da8:	003f1906 	br	23a10 <_dtoa_r+0xc18>
   23dac:	d8800b17 	ldw	r2,44(sp)
   23db0:	dd400615 	stw	r21,24(sp)
   23db4:	d8800315 	stw	r2,12(sp)
   23db8:	d8800317 	ldw	r2,12(sp)
   23dbc:	103e011e 	bne	r2,zero,235c4 <_dtoa_r+0x7cc>
   23dc0:	a00b883a 	mov	r5,r20
   23dc4:	e009883a 	mov	r4,fp
   23dc8:	000f883a 	mov	r7,zero
   23dcc:	01800144 	movi	r6,5
   23dd0:	00264c00 	call	264c0 <__multadd>
   23dd4:	100b883a 	mov	r5,r2
   23dd8:	b809883a 	mov	r4,r23
   23ddc:	1029883a 	mov	r20,r2
   23de0:	0026e180 	call	26e18 <__mcmp>
   23de4:	00bdf70e 	bge	zero,r2,235c4 <_dtoa_r+0x7cc>
   23de8:	d8c00117 	ldw	r3,4(sp)
   23dec:	00800c44 	movi	r2,49
   23df0:	18800005 	stb	r2,0(r3)
   23df4:	d8800617 	ldw	r2,24(sp)
   23df8:	1a000044 	addi	r8,r3,1
   23dfc:	14c00044 	addi	r19,r2,1
   23e00:	a00b883a 	mov	r5,r20
   23e04:	e009883a 	mov	r4,fp
   23e08:	da000315 	stw	r8,12(sp)
   23e0c:	002649c0 	call	2649c <_Bfree>
   23e10:	98800044 	addi	r2,r19,1
   23e14:	d8800215 	stw	r2,8(sp)
   23e18:	da000317 	ldw	r8,12(sp)
   23e1c:	803eda1e 	bne	r16,zero,23988 <_dtoa_r+0xb90>
   23e20:	003ede06 	br	2399c <_dtoa_r+0xba4>
   23e24:	b005883a 	mov	r2,r22
   23e28:	003e5506 	br	23780 <_dtoa_r+0x988>
   23e2c:	800b883a 	mov	r5,r16
   23e30:	900d883a 	mov	r6,r18
   23e34:	e009883a 	mov	r4,fp
   23e38:	0026c900 	call	26c90 <__lshift>
   23e3c:	1021883a 	mov	r16,r2
   23e40:	003f4a06 	br	23b6c <_dtoa_r+0xd74>
   23e44:	1529c83a 	sub	r20,r2,r20
   23e48:	003e3e06 	br	23744 <_dtoa_r+0x94c>
   23e4c:	dcc00a15 	stw	r19,40(sp)
   23e50:	dc400c15 	stw	r17,48(sp)
   23e54:	04000084 	movi	r16,2
   23e58:	003ccf06 	br	23198 <_dtoa_r+0x3a0>
   23e5c:	00800044 	movi	r2,1
   23e60:	003ea106 	br	238e8 <_dtoa_r+0xaf0>
   23e64:	00800044 	movi	r2,1
   23e68:	d8800515 	stw	r2,20(sp)
   23e6c:	003c9506 	br	230c4 <_dtoa_r+0x2cc>
   23e70:	1000021e 	bne	r2,zero,23e7c <_dtoa_r+0x1084>
   23e74:	98c0004c 	andi	r3,r19,1
   23e78:	183ea91e 	bne	r3,zero,23920 <_dtoa_r+0xb28>
   23e7c:	40bfffc7 	ldb	r2,-1(r8)
   23e80:	4007883a 	mov	r3,r8
   23e84:	423fffc4 	addi	r8,r8,-1
   23e88:	10800c20 	cmpeqi	r2,r2,48
   23e8c:	103ffb1e 	bne	r2,zero,23e7c <_dtoa_r+0x1084>
   23e90:	1811883a 	mov	r8,r3
   23e94:	003eb006 	br	23958 <_dtoa_r+0xb60>
   23e98:	d8c00117 	ldw	r3,4(sp)
   23e9c:	00800c44 	movi	r2,49
   23ea0:	18800005 	stb	r2,0(r3)
   23ea4:	d8800217 	ldw	r2,8(sp)
   23ea8:	10800044 	addi	r2,r2,1
   23eac:	d8800215 	stw	r2,8(sp)
   23eb0:	003ea906 	br	23958 <_dtoa_r+0xb60>
   23eb4:	d8c00917 	ldw	r3,36(sp)
   23eb8:	18010e26 	beq	r3,zero,242f4 <_dtoa_r+0x14fc>
   23ebc:	d8c00417 	ldw	r3,16(sp)
   23ec0:	10810cc4 	addi	r2,r2,1075
   23ec4:	b0ad883a 	add	r22,r22,r2
   23ec8:	1885883a 	add	r2,r3,r2
   23ecc:	dd000717 	ldw	r20,28(sp)
   23ed0:	1825883a 	mov	r18,r3
   23ed4:	d8800415 	stw	r2,16(sp)
   23ed8:	003e2106 	br	23760 <_dtoa_r+0x968>
   23edc:	8009883a 	mov	r4,r16
   23ee0:	002d2940 	call	2d294 <__floatsidf>
   23ee4:	d9800a17 	ldw	r6,40(sp)
   23ee8:	900f883a 	mov	r7,r18
   23eec:	1009883a 	mov	r4,r2
   23ef0:	180b883a 	mov	r5,r3
   23ef4:	002c2400 	call	2c240 <__muldf3>
   23ef8:	000d883a 	mov	r6,zero
   23efc:	01d00734 	movhi	r7,16412
   23f00:	1009883a 	mov	r4,r2
   23f04:	180b883a 	mov	r5,r3
   23f08:	002aeb00 	call	2aeb0 <__adddf3>
   23f0c:	1029883a 	mov	r20,r2
   23f10:	00bf3034 	movhi	r2,64704
   23f14:	1885883a 	add	r2,r3,r2
   23f18:	d8800c15 	stw	r2,48(sp)
   23f1c:	d9000a17 	ldw	r4,40(sp)
   23f20:	900b883a 	mov	r5,r18
   23f24:	000d883a 	mov	r6,zero
   23f28:	01d00534 	movhi	r7,16404
   23f2c:	002c8b40 	call	2c8b4 <__subdf3>
   23f30:	d9c00c17 	ldw	r7,48(sp)
   23f34:	a00d883a 	mov	r6,r20
   23f38:	1009883a 	mov	r4,r2
   23f3c:	180b883a 	mov	r5,r3
   23f40:	1025883a 	mov	r18,r2
   23f44:	1821883a 	mov	r16,r3
   23f48:	002c0700 	call	2c070 <__gedf2>
   23f4c:	00812b16 	blt	zero,r2,243fc <_dtoa_r+0x1604>
   23f50:	d8800c17 	ldw	r2,48(sp)
   23f54:	a00d883a 	mov	r6,r20
   23f58:	9009883a 	mov	r4,r18
   23f5c:	11e0003c 	xorhi	r7,r2,32768
   23f60:	800b883a 	mov	r5,r16
   23f64:	002c1580 	call	2c158 <__ledf2>
   23f68:	103d780e 	bge	r2,zero,2354c <_dtoa_r+0x754>
   23f6c:	0029883a 	mov	r20,zero
   23f70:	0021883a 	mov	r16,zero
   23f74:	003d9306 	br	235c4 <_dtoa_r+0x7cc>
   23f78:	d9800717 	ldw	r6,28(sp)
   23f7c:	b80b883a 	mov	r5,r23
   23f80:	e009883a 	mov	r4,fp
   23f84:	0026b480 	call	26b48 <__pow5mult>
   23f88:	102f883a 	mov	r23,r2
   23f8c:	003e1806 	br	237f0 <_dtoa_r+0x9f8>
   23f90:	d8800617 	ldw	r2,24(sp)
   23f94:	1000e326 	beq	r2,zero,24324 <_dtoa_r+0x152c>
   23f98:	00a9c83a 	sub	r20,zero,r2
   23f9c:	a08003cc 	andi	r2,r20,15
   23fa0:	100690fa 	slli	r3,r2,3
   23fa4:	008000f4 	movhi	r2,3
   23fa8:	10802704 	addi	r2,r2,156
   23fac:	10c5883a 	add	r2,r2,r3
   23fb0:	11800017 	ldw	r6,0(r2)
   23fb4:	11c00117 	ldw	r7,4(r2)
   23fb8:	9809883a 	mov	r4,r19
   23fbc:	880b883a 	mov	r5,r17
   23fc0:	a029d13a 	srai	r20,r20,4
   23fc4:	002c2400 	call	2c240 <__muldf3>
   23fc8:	d8800a15 	stw	r2,40(sp)
   23fcc:	1825883a 	mov	r18,r3
   23fd0:	a0013126 	beq	r20,zero,24498 <_dtoa_r+0x16a0>
   23fd4:	020000f4 	movhi	r8,3
   23fd8:	04000084 	movi	r16,2
   23fdc:	42001d04 	addi	r8,r8,116
   23fe0:	180b883a 	mov	r5,r3
   23fe4:	dc400c15 	stw	r17,48(sp)
   23fe8:	1009883a 	mov	r4,r2
   23fec:	8023883a 	mov	r17,r16
   23ff0:	0007883a 	mov	r3,zero
   23ff4:	4021883a 	mov	r16,r8
   23ff8:	a180004c 	andi	r6,r20,1
   23ffc:	30000726 	beq	r6,zero,2401c <_dtoa_r+0x1224>
   24000:	81800017 	ldw	r6,0(r16)
   24004:	81c00117 	ldw	r7,4(r16)
   24008:	8c400044 	addi	r17,r17,1
   2400c:	002c2400 	call	2c240 <__muldf3>
   24010:	180b883a 	mov	r5,r3
   24014:	1009883a 	mov	r4,r2
   24018:	00c00044 	movi	r3,1
   2401c:	a029d07a 	srai	r20,r20,1
   24020:	84000204 	addi	r16,r16,8
   24024:	a03ff41e 	bne	r20,zero,23ff8 <_dtoa_r+0x1200>
   24028:	18c03fcc 	andi	r3,r3,255
   2402c:	8821883a 	mov	r16,r17
   24030:	dc400c17 	ldw	r17,48(sp)
   24034:	183c7126 	beq	r3,zero,231fc <_dtoa_r+0x404>
   24038:	d9000a15 	stw	r4,40(sp)
   2403c:	2825883a 	mov	r18,r5
   24040:	003c6e06 	br	231fc <_dtoa_r+0x404>
   24044:	983eb41e 	bne	r19,zero,23b18 <_dtoa_r+0xd20>
   24048:	00800434 	movhi	r2,16
   2404c:	10bfffc4 	addi	r2,r2,-1
   24050:	8884703a 	and	r2,r17,r2
   24054:	103f4926 	beq	r2,zero,23d7c <_dtoa_r+0xf84>
   24058:	003eaf06 	br	23b18 <_dtoa_r+0xd20>
   2405c:	00800e0e 	bge	zero,r2,24098 <_dtoa_r+0x12a0>
   24060:	b80b883a 	mov	r5,r23
   24064:	01800044 	movi	r6,1
   24068:	e009883a 	mov	r4,fp
   2406c:	da000215 	stw	r8,8(sp)
   24070:	0026c900 	call	26c90 <__lshift>
   24074:	a00b883a 	mov	r5,r20
   24078:	1009883a 	mov	r4,r2
   2407c:	102f883a 	mov	r23,r2
   24080:	0026e180 	call	26e18 <__mcmp>
   24084:	da000217 	ldw	r8,8(sp)
   24088:	0080e30e 	bge	zero,r2,24418 <_dtoa_r+0x1620>
   2408c:	98c00e60 	cmpeqi	r3,r19,57
   24090:	1800cf1e 	bne	r3,zero,243d0 <_dtoa_r+0x15d8>
   24094:	acc00c44 	addi	r19,r21,49
   24098:	8023883a 	mov	r17,r16
   2409c:	d8800617 	ldw	r2,24(sp)
   240a0:	b4c00005 	stb	r19,0(r22)
   240a4:	9021883a 	mov	r16,r18
   240a8:	10800044 	addi	r2,r2,1
   240ac:	d8800215 	stw	r2,8(sp)
   240b0:	003e2906 	br	23958 <_dtoa_r+0xb60>
   240b4:	b82b883a 	mov	r21,r23
   240b8:	ddc00217 	ldw	r23,8(sp)
   240bc:	200d883a 	mov	r6,r4
   240c0:	280f883a 	mov	r7,r5
   240c4:	002aeb00 	call	2aeb0 <__adddf3>
   240c8:	102d883a 	mov	r22,r2
   240cc:	1009883a 	mov	r4,r2
   240d0:	d8800617 	ldw	r2,24(sp)
   240d4:	800d883a 	mov	r6,r16
   240d8:	900f883a 	mov	r7,r18
   240dc:	10800044 	addi	r2,r2,1
   240e0:	180b883a 	mov	r5,r3
   240e4:	1823883a 	mov	r17,r3
   240e8:	1027883a 	mov	r19,r2
   240ec:	d8800215 	stw	r2,8(sp)
   240f0:	002c0700 	call	2c070 <__gedf2>
   240f4:	00808916 	blt	zero,r2,2431c <_dtoa_r+0x1524>
   240f8:	800d883a 	mov	r6,r16
   240fc:	900f883a 	mov	r7,r18
   24100:	b009883a 	mov	r4,r22
   24104:	880b883a 	mov	r5,r17
   24108:	002bff00 	call	2bff0 <__eqdf2>
   2410c:	1000021e 	bne	r2,zero,24118 <_dtoa_r+0x1320>
   24110:	ad40004c 	andi	r21,r21,1
   24114:	a800811e 	bne	r21,zero,2431c <_dtoa_r+0x1524>
   24118:	a011883a 	mov	r8,r20
   2411c:	003e1f06 	br	2399c <_dtoa_r+0xba4>
   24120:	81400117 	ldw	r5,4(r16)
   24124:	e009883a 	mov	r4,fp
   24128:	00263f80 	call	263f8 <_Balloc>
   2412c:	1023883a 	mov	r17,r2
   24130:	1000f326 	beq	r2,zero,24500 <_dtoa_r+0x1708>
   24134:	81800417 	ldw	r6,16(r16)
   24138:	81400304 	addi	r5,r16,12
   2413c:	11000304 	addi	r4,r2,12
   24140:	31800084 	addi	r6,r6,2
   24144:	300c90ba 	slli	r6,r6,2
   24148:	00260dc0 	call	260dc <memcpy>
   2414c:	01800044 	movi	r6,1
   24150:	880b883a 	mov	r5,r17
   24154:	e009883a 	mov	r4,fp
   24158:	0026c900 	call	26c90 <__lshift>
   2415c:	1025883a 	mov	r18,r2
   24160:	003e8406 	br	23b74 <_dtoa_r+0xd7c>
   24164:	b80b883a 	mov	r5,r23
   24168:	e009883a 	mov	r4,fp
   2416c:	0026b480 	call	26b48 <__pow5mult>
   24170:	102f883a 	mov	r23,r2
   24174:	003d9e06 	br	237f0 <_dtoa_r+0x9f8>
   24178:	d8800417 	ldw	r2,16(sp)
   2417c:	d8c00317 	ldw	r3,12(sp)
   24180:	10e5c83a 	sub	r18,r2,r3
   24184:	003d7606 	br	23760 <_dtoa_r+0x968>
   24188:	98800e58 	cmpnei	r2,r19,57
   2418c:	10009026 	beq	r2,zero,243d0 <_dtoa_r+0x15d8>
   24190:	d8800617 	ldw	r2,24(sp)
   24194:	98c00044 	addi	r3,r19,1
   24198:	8023883a 	mov	r17,r16
   2419c:	10800044 	addi	r2,r2,1
   241a0:	d8800215 	stw	r2,8(sp)
   241a4:	b0c00005 	stb	r3,0(r22)
   241a8:	9021883a 	mov	r16,r18
   241ac:	003dea06 	br	23958 <_dtoa_r+0xb60>
   241b0:	d8800617 	ldw	r2,24(sp)
   241b4:	8023883a 	mov	r17,r16
   241b8:	9021883a 	mov	r16,r18
   241bc:	10800044 	addi	r2,r2,1
   241c0:	d8800215 	stw	r2,8(sp)
   241c4:	003dcb06 	br	238f4 <_dtoa_r+0xafc>
   241c8:	d9400c17 	ldw	r5,48(sp)
   241cc:	a009883a 	mov	r4,r20
   241d0:	002c2400 	call	2c240 <__muldf3>
   241d4:	d9400117 	ldw	r5,4(sp)
   241d8:	d9000f17 	ldw	r4,60(sp)
   241dc:	d9800d17 	ldw	r6,52(sp)
   241e0:	d8800a15 	stw	r2,40(sp)
   241e4:	29000005 	stb	r4,0(r5)
   241e8:	d8c00c15 	stw	r3,48(sp)
   241ec:	31000058 	cmpnei	r4,r6,1
   241f0:	da000e17 	ldw	r8,56(sp)
   241f4:	29a9883a 	add	r20,r5,r6
   241f8:	20009d26 	beq	r4,zero,24470 <_dtoa_r+0x1678>
   241fc:	dc400d15 	stw	r17,52(sp)
   24200:	8009883a 	mov	r4,r16
   24204:	900b883a 	mov	r5,r18
   24208:	4023883a 	mov	r17,r8
   2420c:	dcc00e15 	stw	r19,56(sp)
   24210:	000d883a 	mov	r6,zero
   24214:	01d00934 	movhi	r7,16420
   24218:	002c2400 	call	2c240 <__muldf3>
   2421c:	180b883a 	mov	r5,r3
   24220:	1009883a 	mov	r4,r2
   24224:	1825883a 	mov	r18,r3
   24228:	1027883a 	mov	r19,r2
   2422c:	002d2140 	call	2d214 <__fixdfsi>
   24230:	1009883a 	mov	r4,r2
   24234:	1021883a 	mov	r16,r2
   24238:	002d2940 	call	2d294 <__floatsidf>
   2423c:	9809883a 	mov	r4,r19
   24240:	900b883a 	mov	r5,r18
   24244:	100d883a 	mov	r6,r2
   24248:	180f883a 	mov	r7,r3
   2424c:	8c400044 	addi	r17,r17,1
   24250:	84000c04 	addi	r16,r16,48
   24254:	002c8b40 	call	2c8b4 <__subdf3>
   24258:	8c3fffc5 	stb	r16,-1(r17)
   2425c:	1009883a 	mov	r4,r2
   24260:	180b883a 	mov	r5,r3
   24264:	a47fea1e 	bne	r20,r17,24210 <_dtoa_r+0x1418>
   24268:	dc400d17 	ldw	r17,52(sp)
   2426c:	dcc00e17 	ldw	r19,56(sp)
   24270:	1021883a 	mov	r16,r2
   24274:	1825883a 	mov	r18,r3
   24278:	d9000a17 	ldw	r4,40(sp)
   2427c:	d9400c17 	ldw	r5,48(sp)
   24280:	000d883a 	mov	r6,zero
   24284:	01cff834 	movhi	r7,16352
   24288:	002aeb00 	call	2aeb0 <__adddf3>
   2428c:	800d883a 	mov	r6,r16
   24290:	900f883a 	mov	r7,r18
   24294:	1009883a 	mov	r4,r2
   24298:	180b883a 	mov	r5,r3
   2429c:	002c1580 	call	2c158 <__ledf2>
   242a0:	10005916 	blt	r2,zero,24408 <_dtoa_r+0x1610>
   242a4:	d9800a17 	ldw	r6,40(sp)
   242a8:	d9c00c17 	ldw	r7,48(sp)
   242ac:	0009883a 	mov	r4,zero
   242b0:	014ff834 	movhi	r5,16352
   242b4:	002c8b40 	call	2c8b4 <__subdf3>
   242b8:	800d883a 	mov	r6,r16
   242bc:	900f883a 	mov	r7,r18
   242c0:	1009883a 	mov	r4,r2
   242c4:	180b883a 	mov	r5,r3
   242c8:	002c0700 	call	2c070 <__gedf2>
   242cc:	00bc9f0e 	bge	zero,r2,2354c <_dtoa_r+0x754>
   242d0:	a0bfffc7 	ldb	r2,-1(r20)
   242d4:	a011883a 	mov	r8,r20
   242d8:	a53fffc4 	addi	r20,r20,-1
   242dc:	10800c20 	cmpeqi	r2,r2,48
   242e0:	103ffb1e 	bne	r2,zero,242d0 <_dtoa_r+0x14d8>
   242e4:	d8801017 	ldw	r2,64(sp)
   242e8:	10800044 	addi	r2,r2,1
   242ec:	d8800215 	stw	r2,8(sp)
   242f0:	003daa06 	br	2399c <_dtoa_r+0xba4>
   242f4:	d8c01117 	ldw	r3,68(sp)
   242f8:	d9000417 	ldw	r4,16(sp)
   242fc:	00800d84 	movi	r2,54
   24300:	10c5c83a 	sub	r2,r2,r3
   24304:	b0ad883a 	add	r22,r22,r2
   24308:	2085883a 	add	r2,r4,r2
   2430c:	dd000717 	ldw	r20,28(sp)
   24310:	2025883a 	mov	r18,r4
   24314:	d8800415 	stw	r2,16(sp)
   24318:	003d1106 	br	23760 <_dtoa_r+0x968>
   2431c:	d9000117 	ldw	r4,4(sp)
   24320:	003c4e06 	br	2345c <_dtoa_r+0x664>
   24324:	dcc00a15 	stw	r19,40(sp)
   24328:	8825883a 	mov	r18,r17
   2432c:	04000084 	movi	r16,2
   24330:	003bb206 	br	231fc <_dtoa_r+0x404>
   24334:	d8800317 	ldw	r2,12(sp)
   24338:	103ee826 	beq	r2,zero,23edc <_dtoa_r+0x10e4>
   2433c:	d8800b17 	ldw	r2,44(sp)
   24340:	00bc820e 	bge	zero,r2,2354c <_dtoa_r+0x754>
   24344:	900b883a 	mov	r5,r18
   24348:	a009883a 	mov	r4,r20
   2434c:	000d883a 	mov	r6,zero
   24350:	01d00934 	movhi	r7,16420
   24354:	002c2400 	call	2c240 <__muldf3>
   24358:	81000044 	addi	r4,r16,1
   2435c:	1029883a 	mov	r20,r2
   24360:	1825883a 	mov	r18,r3
   24364:	d8800a15 	stw	r2,40(sp)
   24368:	002d2940 	call	2d294 <__floatsidf>
   2436c:	a00d883a 	mov	r6,r20
   24370:	900f883a 	mov	r7,r18
   24374:	1009883a 	mov	r4,r2
   24378:	180b883a 	mov	r5,r3
   2437c:	002c2400 	call	2c240 <__muldf3>
   24380:	1009883a 	mov	r4,r2
   24384:	000d883a 	mov	r6,zero
   24388:	01d00734 	movhi	r7,16412
   2438c:	180b883a 	mov	r5,r3
   24390:	002aeb00 	call	2aeb0 <__adddf3>
   24394:	d9000617 	ldw	r4,24(sp)
   24398:	1029883a 	mov	r20,r2
   2439c:	00bf3034 	movhi	r2,64704
   243a0:	1887883a 	add	r3,r3,r2
   243a4:	d8800b17 	ldw	r2,44(sp)
   243a8:	213fffc4 	addi	r4,r4,-1
   243ac:	d9001015 	stw	r4,64(sp)
   243b0:	d8c00c15 	stw	r3,48(sp)
   243b4:	d8800d15 	stw	r2,52(sp)
   243b8:	003baf06 	br	23278 <_dtoa_r+0x480>
   243bc:	00c00c44 	movi	r3,49
   243c0:	9cc00044 	addi	r19,r19,1
   243c4:	003c2e06 	br	23480 <_dtoa_r+0x688>
   243c8:	b0800044 	addi	r2,r22,1
   243cc:	d8800315 	stw	r2,12(sp)
   243d0:	00800e44 	movi	r2,57
   243d4:	b0800005 	stb	r2,0(r22)
   243d8:	d8800617 	ldw	r2,24(sp)
   243dc:	8023883a 	mov	r17,r16
   243e0:	da000317 	ldw	r8,12(sp)
   243e4:	10800044 	addi	r2,r2,1
   243e8:	d9400117 	ldw	r5,4(sp)
   243ec:	d8800215 	stw	r2,8(sp)
   243f0:	9021883a 	mov	r16,r18
   243f4:	01000e44 	movi	r4,57
   243f8:	003d4f06 	br	23938 <_dtoa_r+0xb40>
   243fc:	0029883a 	mov	r20,zero
   24400:	0021883a 	mov	r16,zero
   24404:	003e7806 	br	23de8 <_dtoa_r+0xff0>
   24408:	d8801017 	ldw	r2,64(sp)
   2440c:	d9000117 	ldw	r4,4(sp)
   24410:	14c00044 	addi	r19,r2,1
   24414:	003c1106 	br	2345c <_dtoa_r+0x664>
   24418:	103f1f1e 	bne	r2,zero,24098 <_dtoa_r+0x12a0>
   2441c:	9880004c 	andi	r2,r19,1
   24420:	103f1a1e 	bne	r2,zero,2408c <_dtoa_r+0x1294>
   24424:	003f1c06 	br	24098 <_dtoa_r+0x12a0>
   24428:	d8801017 	ldw	r2,64(sp)
   2442c:	ddc00c17 	ldw	r23,48(sp)
   24430:	a811883a 	mov	r8,r21
   24434:	10800044 	addi	r2,r2,1
   24438:	d8800215 	stw	r2,8(sp)
   2443c:	003d5706 	br	2399c <_dtoa_r+0xba4>
   24440:	98800e60 	cmpeqi	r2,r19,57
   24444:	103fe01e 	bne	r2,zero,243c8 <_dtoa_r+0x15d0>
   24448:	0440010e 	bge	zero,r17,24450 <_dtoa_r+0x1658>
   2444c:	acc00c44 	addi	r19,r21,49
   24450:	8023883a 	mov	r17,r16
   24454:	b2000044 	addi	r8,r22,1
   24458:	003f1006 	br	2409c <_dtoa_r+0x12a4>
   2445c:	d8800217 	ldw	r2,8(sp)
   24460:	108000c8 	cmpgei	r2,r2,3
   24464:	103e511e 	bne	r2,zero,23dac <_dtoa_r+0xfb4>
   24468:	dd400615 	stw	r21,24(sp)
   2446c:	003e1406 	br	23cc0 <_dtoa_r+0xec8>
   24470:	4029883a 	mov	r20,r8
   24474:	003f8006 	br	24278 <_dtoa_r+0x1480>
   24478:	d8800217 	ldw	r2,8(sp)
   2447c:	108000c8 	cmpgei	r2,r2,3
   24480:	103e4a1e 	bne	r2,zero,23dac <_dtoa_r+0xfb4>
   24484:	d8800b17 	ldw	r2,44(sp)
   24488:	dd400615 	stw	r21,24(sp)
   2448c:	d8800315 	stw	r2,12(sp)
   24490:	04bdb60e 	bge	zero,r18,23b6c <_dtoa_r+0xd74>
   24494:	003e6506 	br	23e2c <_dtoa_r+0x1034>
   24498:	04000084 	movi	r16,2
   2449c:	003b5706 	br	231fc <_dtoa_r+0x404>
   244a0:	01c000f4 	movhi	r7,3
   244a4:	010000f4 	movhi	r4,3
   244a8:	39ffed04 	addi	r7,r7,-76
   244ac:	000d883a 	mov	r6,zero
   244b0:	01406a84 	movi	r5,426
   244b4:	213ff204 	addi	r4,r4,-56
   244b8:	002942c0 	call	2942c <__assert_func>
   244bc:	000b883a 	mov	r5,zero
   244c0:	003b1006 	br	23104 <_dtoa_r+0x30c>
   244c4:	e0001115 	stw	zero,68(fp)
   244c8:	000b883a 	mov	r5,zero
   244cc:	e009883a 	mov	r4,fp
   244d0:	00263f80 	call	263f8 <_Balloc>
   244d4:	d8800115 	stw	r2,4(sp)
   244d8:	103ff126 	beq	r2,zero,244a0 <_dtoa_r+0x16a8>
   244dc:	d8800117 	ldw	r2,4(sp)
   244e0:	d8001d15 	stw	zero,116(sp)
   244e4:	e0801015 	stw	r2,64(fp)
   244e8:	00bfffc4 	movi	r2,-1
   244ec:	d8800315 	stw	r2,12(sp)
   244f0:	d8800b15 	stw	r2,44(sp)
   244f4:	00800044 	movi	r2,1
   244f8:	d8800515 	stw	r2,20(sp)
   244fc:	003c1306 	br	2354c <_dtoa_r+0x754>
   24500:	01c000f4 	movhi	r7,3
   24504:	010000f4 	movhi	r4,3
   24508:	39ffed04 	addi	r7,r7,-76
   2450c:	000d883a 	mov	r6,zero
   24510:	0140ba84 	movi	r5,746
   24514:	213ff204 	addi	r4,r4,-56
   24518:	002942c0 	call	2942c <__assert_func>
   2451c:	008000f4 	movhi	r2,3
   24520:	10bfea04 	addi	r2,r2,-88
   24524:	d8800115 	stw	r2,4(sp)
   24528:	003a6506 	br	22ec0 <_dtoa_r+0xc8>
   2452c:	18c00120 	cmpeqi	r3,r3,4
   24530:	183cc81e 	bne	r3,zero,23854 <_dtoa_r+0xa5c>
   24534:	00c00f04 	movi	r3,60
   24538:	1885c83a 	sub	r2,r3,r2
   2453c:	003cc006 	br	23840 <_dtoa_r+0xa48>

00024540 <__sflush_r>:
   24540:	2880030b 	ldhu	r2,12(r5)
   24544:	defffb04 	addi	sp,sp,-20
   24548:	dcc00315 	stw	r19,12(sp)
   2454c:	dc000015 	stw	r16,0(sp)
   24550:	dfc00415 	stw	ra,16(sp)
   24554:	dc800215 	stw	r18,8(sp)
   24558:	dc400115 	stw	r17,4(sp)
   2455c:	10c0020c 	andi	r3,r2,8
   24560:	2821883a 	mov	r16,r5
   24564:	2027883a 	mov	r19,r4
   24568:	18003f1e 	bne	r3,zero,24668 <__sflush_r+0x128>
   2456c:	28c00117 	ldw	r3,4(r5)
   24570:	10820014 	ori	r2,r2,2048
   24574:	2880030d 	sth	r2,12(r5)
   24578:	00c0550e 	bge	zero,r3,246d0 <__sflush_r+0x190>
   2457c:	82000a17 	ldw	r8,40(r16)
   24580:	40003126 	beq	r8,zero,24648 <__sflush_r+0x108>
   24584:	9c400017 	ldw	r17,0(r19)
   24588:	1104000c 	andi	r4,r2,4096
   2458c:	98000015 	stw	zero,0(r19)
   24590:	1007883a 	mov	r3,r2
   24594:	2000531e 	bne	r4,zero,246e4 <__sflush_r+0x1a4>
   24598:	81400717 	ldw	r5,28(r16)
   2459c:	01c00044 	movi	r7,1
   245a0:	000d883a 	mov	r6,zero
   245a4:	9809883a 	mov	r4,r19
   245a8:	403ee83a 	callr	r8
   245ac:	10ffffd8 	cmpnei	r3,r2,-1
   245b0:	18005826 	beq	r3,zero,24714 <__sflush_r+0x1d4>
   245b4:	80c0030b 	ldhu	r3,12(r16)
   245b8:	82000a17 	ldw	r8,40(r16)
   245bc:	18c0010c 	andi	r3,r3,4
   245c0:	18000626 	beq	r3,zero,245dc <__sflush_r+0x9c>
   245c4:	81000117 	ldw	r4,4(r16)
   245c8:	80c00c17 	ldw	r3,48(r16)
   245cc:	1105c83a 	sub	r2,r2,r4
   245d0:	18000226 	beq	r3,zero,245dc <__sflush_r+0x9c>
   245d4:	80c00f17 	ldw	r3,60(r16)
   245d8:	10c5c83a 	sub	r2,r2,r3
   245dc:	81400717 	ldw	r5,28(r16)
   245e0:	100d883a 	mov	r6,r2
   245e4:	000f883a 	mov	r7,zero
   245e8:	9809883a 	mov	r4,r19
   245ec:	403ee83a 	callr	r8
   245f0:	10ffffd8 	cmpnei	r3,r2,-1
   245f4:	18003d1e 	bne	r3,zero,246ec <__sflush_r+0x1ac>
   245f8:	99000017 	ldw	r4,0(r19)
   245fc:	80c0030b 	ldhu	r3,12(r16)
   24600:	20004e26 	beq	r4,zero,2473c <__sflush_r+0x1fc>
   24604:	21400760 	cmpeqi	r5,r4,29
   24608:	2800021e 	bne	r5,zero,24614 <__sflush_r+0xd4>
   2460c:	210005a0 	cmpeqi	r4,r4,22
   24610:	20002c26 	beq	r4,zero,246c4 <__sflush_r+0x184>
   24614:	80800417 	ldw	r2,16(r16)
   24618:	18fdffcc 	andi	r3,r3,63487
   2461c:	80c0030d 	sth	r3,12(r16)
   24620:	80000115 	stw	zero,4(r16)
   24624:	80800015 	stw	r2,0(r16)
   24628:	81400c17 	ldw	r5,48(r16)
   2462c:	9c400015 	stw	r17,0(r19)
   24630:	28000526 	beq	r5,zero,24648 <__sflush_r+0x108>
   24634:	80801004 	addi	r2,r16,64
   24638:	28800226 	beq	r5,r2,24644 <__sflush_r+0x104>
   2463c:	9809883a 	mov	r4,r19
   24640:	0024d040 	call	24d04 <_free_r>
   24644:	80000c15 	stw	zero,48(r16)
   24648:	0005883a 	mov	r2,zero
   2464c:	dfc00417 	ldw	ra,16(sp)
   24650:	dcc00317 	ldw	r19,12(sp)
   24654:	dc800217 	ldw	r18,8(sp)
   24658:	dc400117 	ldw	r17,4(sp)
   2465c:	dc000017 	ldw	r16,0(sp)
   24660:	dec00504 	addi	sp,sp,20
   24664:	f800283a 	ret
   24668:	2c800417 	ldw	r18,16(r5)
   2466c:	903ff626 	beq	r18,zero,24648 <__sflush_r+0x108>
   24670:	2c400017 	ldw	r17,0(r5)
   24674:	108000cc 	andi	r2,r2,3
   24678:	2c800015 	stw	r18,0(r5)
   2467c:	8ca3c83a 	sub	r17,r17,r18
   24680:	1000161e 	bne	r2,zero,246dc <__sflush_r+0x19c>
   24684:	28800517 	ldw	r2,20(r5)
   24688:	80800215 	stw	r2,8(r16)
   2468c:	04400316 	blt	zero,r17,2469c <__sflush_r+0x15c>
   24690:	003fed06 	br	24648 <__sflush_r+0x108>
   24694:	90a5883a 	add	r18,r18,r2
   24698:	047feb0e 	bge	zero,r17,24648 <__sflush_r+0x108>
   2469c:	80800917 	ldw	r2,36(r16)
   246a0:	81400717 	ldw	r5,28(r16)
   246a4:	880f883a 	mov	r7,r17
   246a8:	900d883a 	mov	r6,r18
   246ac:	9809883a 	mov	r4,r19
   246b0:	103ee83a 	callr	r2
   246b4:	88a3c83a 	sub	r17,r17,r2
   246b8:	00bff616 	blt	zero,r2,24694 <__sflush_r+0x154>
   246bc:	80c0030b 	ldhu	r3,12(r16)
   246c0:	00bfffc4 	movi	r2,-1
   246c4:	18c01014 	ori	r3,r3,64
   246c8:	80c0030d 	sth	r3,12(r16)
   246cc:	003fdf06 	br	2464c <__sflush_r+0x10c>
   246d0:	28c00f17 	ldw	r3,60(r5)
   246d4:	00ffa916 	blt	zero,r3,2457c <__sflush_r+0x3c>
   246d8:	003fdb06 	br	24648 <__sflush_r+0x108>
   246dc:	0005883a 	mov	r2,zero
   246e0:	003fe906 	br	24688 <__sflush_r+0x148>
   246e4:	80801417 	ldw	r2,80(r16)
   246e8:	003fb406 	br	245bc <__sflush_r+0x7c>
   246ec:	80c0030b 	ldhu	r3,12(r16)
   246f0:	81000417 	ldw	r4,16(r16)
   246f4:	80000115 	stw	zero,4(r16)
   246f8:	197dffcc 	andi	r5,r3,63487
   246fc:	8140030d 	sth	r5,12(r16)
   24700:	81000015 	stw	r4,0(r16)
   24704:	18c4000c 	andi	r3,r3,4096
   24708:	183fc726 	beq	r3,zero,24628 <__sflush_r+0xe8>
   2470c:	80801415 	stw	r2,80(r16)
   24710:	003fc506 	br	24628 <__sflush_r+0xe8>
   24714:	98c00017 	ldw	r3,0(r19)
   24718:	183fa626 	beq	r3,zero,245b4 <__sflush_r+0x74>
   2471c:	19000760 	cmpeqi	r4,r3,29
   24720:	20000e1e 	bne	r4,zero,2475c <__sflush_r+0x21c>
   24724:	18c00598 	cmpnei	r3,r3,22
   24728:	18000c26 	beq	r3,zero,2475c <__sflush_r+0x21c>
   2472c:	80c0030b 	ldhu	r3,12(r16)
   24730:	18c01014 	ori	r3,r3,64
   24734:	80c0030d 	sth	r3,12(r16)
   24738:	003fc406 	br	2464c <__sflush_r+0x10c>
   2473c:	81000417 	ldw	r4,16(r16)
   24740:	197dffcc 	andi	r5,r3,63487
   24744:	8140030d 	sth	r5,12(r16)
   24748:	80000115 	stw	zero,4(r16)
   2474c:	81000015 	stw	r4,0(r16)
   24750:	18c4000c 	andi	r3,r3,4096
   24754:	183fb426 	beq	r3,zero,24628 <__sflush_r+0xe8>
   24758:	003fec06 	br	2470c <__sflush_r+0x1cc>
   2475c:	9c400015 	stw	r17,0(r19)
   24760:	0005883a 	mov	r2,zero
   24764:	003fb906 	br	2464c <__sflush_r+0x10c>

00024768 <_fflush_r>:
   24768:	defffd04 	addi	sp,sp,-12
   2476c:	dc000115 	stw	r16,4(sp)
   24770:	dfc00215 	stw	ra,8(sp)
   24774:	2021883a 	mov	r16,r4
   24778:	20000226 	beq	r4,zero,24784 <_fflush_r+0x1c>
   2477c:	20800e17 	ldw	r2,56(r4)
   24780:	10000726 	beq	r2,zero,247a0 <_fflush_r+0x38>
   24784:	2880030f 	ldh	r2,12(r5)
   24788:	10000a1e 	bne	r2,zero,247b4 <_fflush_r+0x4c>
   2478c:	0005883a 	mov	r2,zero
   24790:	dfc00217 	ldw	ra,8(sp)
   24794:	dc000117 	ldw	r16,4(sp)
   24798:	dec00304 	addi	sp,sp,12
   2479c:	f800283a 	ret
   247a0:	d9400015 	stw	r5,0(sp)
   247a4:	0024ba00 	call	24ba0 <__sinit>
   247a8:	d9400017 	ldw	r5,0(sp)
   247ac:	2880030f 	ldh	r2,12(r5)
   247b0:	103ff626 	beq	r2,zero,2478c <_fflush_r+0x24>
   247b4:	8009883a 	mov	r4,r16
   247b8:	dfc00217 	ldw	ra,8(sp)
   247bc:	dc000117 	ldw	r16,4(sp)
   247c0:	dec00304 	addi	sp,sp,12
   247c4:	00245401 	jmpi	24540 <__sflush_r>

000247c8 <fflush>:
   247c8:	20001726 	beq	r4,zero,24828 <fflush+0x60>
   247cc:	008000f4 	movhi	r2,3
   247d0:	200b883a 	mov	r5,r4
   247d4:	11084a17 	ldw	r4,8488(r2)
   247d8:	20000226 	beq	r4,zero,247e4 <fflush+0x1c>
   247dc:	20800e17 	ldw	r2,56(r4)
   247e0:	10000526 	beq	r2,zero,247f8 <fflush+0x30>
   247e4:	2880030f 	ldh	r2,12(r5)
   247e8:	1000021e 	bne	r2,zero,247f4 <fflush+0x2c>
   247ec:	0005883a 	mov	r2,zero
   247f0:	f800283a 	ret
   247f4:	00245401 	jmpi	24540 <__sflush_r>
   247f8:	defffd04 	addi	sp,sp,-12
   247fc:	d9400115 	stw	r5,4(sp)
   24800:	d9000015 	stw	r4,0(sp)
   24804:	dfc00215 	stw	ra,8(sp)
   24808:	0024ba00 	call	24ba0 <__sinit>
   2480c:	d9400117 	ldw	r5,4(sp)
   24810:	d9000017 	ldw	r4,0(sp)
   24814:	2880030f 	ldh	r2,12(r5)
   24818:	10000826 	beq	r2,zero,2483c <fflush+0x74>
   2481c:	dfc00217 	ldw	ra,8(sp)
   24820:	dec00304 	addi	sp,sp,12
   24824:	00245401 	jmpi	24540 <__sflush_r>
   24828:	008000f4 	movhi	r2,3
   2482c:	11084917 	ldw	r4,8484(r2)
   24830:	014000b4 	movhi	r5,2
   24834:	2951da04 	addi	r5,r5,18280
   24838:	002551c1 	jmpi	2551c <_fwalk_reent>
   2483c:	0005883a 	mov	r2,zero
   24840:	dfc00217 	ldw	ra,8(sp)
   24844:	dec00304 	addi	sp,sp,12
   24848:	f800283a 	ret

0002484c <__fp_lock>:
   2484c:	0005883a 	mov	r2,zero
   24850:	f800283a 	ret

00024854 <_cleanup_r>:
   24854:	014000f4 	movhi	r5,3
   24858:	2965a704 	addi	r5,r5,-26980
   2485c:	002551c1 	jmpi	2551c <_fwalk_reent>

00024860 <__fp_unlock>:
   24860:	0005883a 	mov	r2,zero
   24864:	f800283a 	ret

00024868 <__sinit.part.0>:
   24868:	00c000b4 	movhi	r3,2
   2486c:	20800117 	ldw	r2,4(r4)
   24870:	18d21504 	addi	r3,r3,18516
   24874:	20c00f15 	stw	r3,60(r4)
   24878:	2140bb04 	addi	r5,r4,748
   2487c:	00c000c4 	movi	r3,3
   24880:	20c0b915 	stw	r3,740(r4)
   24884:	2140ba15 	stw	r5,744(r4)
   24888:	2000b815 	stw	zero,736(r4)
   2488c:	10001705 	stb	zero,92(r2)
   24890:	10001745 	stb	zero,93(r2)
   24894:	10001785 	stb	zero,94(r2)
   24898:	100017c5 	stb	zero,95(r2)
   2489c:	10001805 	stb	zero,96(r2)
   248a0:	10001845 	stb	zero,97(r2)
   248a4:	10001885 	stb	zero,98(r2)
   248a8:	100018c5 	stb	zero,99(r2)
   248ac:	00c00104 	movi	r3,4
   248b0:	10c00315 	stw	r3,12(r2)
   248b4:	020000b4 	movhi	r8,2
   248b8:	20c00217 	ldw	r3,8(r4)
   248bc:	01c000b4 	movhi	r7,2
   248c0:	018000b4 	movhi	r6,2
   248c4:	014000b4 	movhi	r5,2
   248c8:	421f2604 	addi	r8,r8,31896
   248cc:	39df3d04 	addi	r7,r7,31988
   248d0:	319f5d04 	addi	r6,r6,32116
   248d4:	295f7404 	addi	r5,r5,32208
   248d8:	02400074 	movhi	r9,1
   248dc:	10001915 	stw	zero,100(r2)
   248e0:	10000015 	stw	zero,0(r2)
   248e4:	10000115 	stw	zero,4(r2)
   248e8:	10000215 	stw	zero,8(r2)
   248ec:	10000415 	stw	zero,16(r2)
   248f0:	10000515 	stw	zero,20(r2)
   248f4:	10000615 	stw	zero,24(r2)
   248f8:	10800715 	stw	r2,28(r2)
   248fc:	12000815 	stw	r8,32(r2)
   24900:	11c00915 	stw	r7,36(r2)
   24904:	11800a15 	stw	r6,40(r2)
   24908:	11400b15 	stw	r5,44(r2)
   2490c:	4a400284 	addi	r9,r9,10
   24910:	1a400315 	stw	r9,12(r3)
   24914:	18001915 	stw	zero,100(r3)
   24918:	18000015 	stw	zero,0(r3)
   2491c:	18000115 	stw	zero,4(r3)
   24920:	18000215 	stw	zero,8(r3)
   24924:	18000415 	stw	zero,16(r3)
   24928:	18001705 	stb	zero,92(r3)
   2492c:	18001745 	stb	zero,93(r3)
   24930:	18001785 	stb	zero,94(r3)
   24934:	180017c5 	stb	zero,95(r3)
   24938:	18001805 	stb	zero,96(r3)
   2493c:	18001845 	stb	zero,97(r3)
   24940:	18001885 	stb	zero,98(r3)
   24944:	180018c5 	stb	zero,99(r3)
   24948:	20800317 	ldw	r2,12(r4)
   2494c:	024000b4 	movhi	r9,2
   24950:	18000515 	stw	zero,20(r3)
   24954:	18000615 	stw	zero,24(r3)
   24958:	18c00715 	stw	r3,28(r3)
   2495c:	1a000815 	stw	r8,32(r3)
   24960:	19c00915 	stw	r7,36(r3)
   24964:	19800a15 	stw	r6,40(r3)
   24968:	19400b15 	stw	r5,44(r3)
   2496c:	4a400484 	addi	r9,r9,18
   24970:	10001915 	stw	zero,100(r2)
   24974:	10000015 	stw	zero,0(r2)
   24978:	10000115 	stw	zero,4(r2)
   2497c:	10000215 	stw	zero,8(r2)
   24980:	12400315 	stw	r9,12(r2)
   24984:	10000415 	stw	zero,16(r2)
   24988:	10000515 	stw	zero,20(r2)
   2498c:	10000615 	stw	zero,24(r2)
   24990:	10001705 	stb	zero,92(r2)
   24994:	10001745 	stb	zero,93(r2)
   24998:	10001785 	stb	zero,94(r2)
   2499c:	100017c5 	stb	zero,95(r2)
   249a0:	10001805 	stb	zero,96(r2)
   249a4:	10001845 	stb	zero,97(r2)
   249a8:	10001885 	stb	zero,98(r2)
   249ac:	100018c5 	stb	zero,99(r2)
   249b0:	10800715 	stw	r2,28(r2)
   249b4:	12000815 	stw	r8,32(r2)
   249b8:	11c00915 	stw	r7,36(r2)
   249bc:	11800a15 	stw	r6,40(r2)
   249c0:	11400b15 	stw	r5,44(r2)
   249c4:	00800044 	movi	r2,1
   249c8:	20800e15 	stw	r2,56(r4)
   249cc:	f800283a 	ret

000249d0 <__sfmoreglue>:
   249d0:	defffc04 	addi	sp,sp,-16
   249d4:	dc400115 	stw	r17,4(sp)
   249d8:	2c7fffc4 	addi	r17,r5,-1
   249dc:	8c401a24 	muli	r17,r17,104
   249e0:	dc800215 	stw	r18,8(sp)
   249e4:	2825883a 	mov	r18,r5
   249e8:	89401d04 	addi	r5,r17,116
   249ec:	dc000015 	stw	r16,0(sp)
   249f0:	dfc00315 	stw	ra,12(sp)
   249f4:	002582c0 	call	2582c <_malloc_r>
   249f8:	1021883a 	mov	r16,r2
   249fc:	10000726 	beq	r2,zero,24a1c <__sfmoreglue+0x4c>
   24a00:	11000304 	addi	r4,r2,12
   24a04:	10000015 	stw	zero,0(r2)
   24a08:	14800115 	stw	r18,4(r2)
   24a0c:	11000215 	stw	r4,8(r2)
   24a10:	89801a04 	addi	r6,r17,104
   24a14:	000b883a 	mov	r5,zero
   24a18:	00263080 	call	26308 <memset>
   24a1c:	8005883a 	mov	r2,r16
   24a20:	dfc00317 	ldw	ra,12(sp)
   24a24:	dc800217 	ldw	r18,8(sp)
   24a28:	dc400117 	ldw	r17,4(sp)
   24a2c:	dc000017 	ldw	r16,0(sp)
   24a30:	dec00404 	addi	sp,sp,16
   24a34:	f800283a 	ret

00024a38 <__sfp>:
   24a38:	defffb04 	addi	sp,sp,-20
   24a3c:	008000f4 	movhi	r2,3
   24a40:	dc000015 	stw	r16,0(sp)
   24a44:	14084917 	ldw	r16,8484(r2)
   24a48:	dc400115 	stw	r17,4(sp)
   24a4c:	dfc00415 	stw	ra,16(sp)
   24a50:	80800e17 	ldw	r2,56(r16)
   24a54:	dcc00315 	stw	r19,12(sp)
   24a58:	dc800215 	stw	r18,8(sp)
   24a5c:	2023883a 	mov	r17,r4
   24a60:	10003126 	beq	r2,zero,24b28 <__sfp+0xf0>
   24a64:	8100ba17 	ldw	r4,744(r16)
   24a68:	8140b917 	ldw	r5,740(r16)
   24a6c:	04c00104 	movi	r19,4
   24a70:	8400b804 	addi	r16,r16,736
   24a74:	297fffc4 	addi	r5,r5,-1
   24a78:	2800050e 	bge	r5,zero,24a90 <__sfp+0x58>
   24a7c:	00002406 	br	24b10 <__sfp+0xd8>
   24a80:	297fffc4 	addi	r5,r5,-1
   24a84:	28bfffd8 	cmpnei	r2,r5,-1
   24a88:	21001a04 	addi	r4,r4,104
   24a8c:	10002026 	beq	r2,zero,24b10 <__sfp+0xd8>
   24a90:	2080030f 	ldh	r2,12(r4)
   24a94:	103ffa1e 	bne	r2,zero,24a80 <__sfp+0x48>
   24a98:	00bffff4 	movhi	r2,65535
   24a9c:	10800044 	addi	r2,r2,1
   24aa0:	20001915 	stw	zero,100(r4)
   24aa4:	20000015 	stw	zero,0(r4)
   24aa8:	20000115 	stw	zero,4(r4)
   24aac:	20000215 	stw	zero,8(r4)
   24ab0:	20800315 	stw	r2,12(r4)
   24ab4:	20000415 	stw	zero,16(r4)
   24ab8:	20000515 	stw	zero,20(r4)
   24abc:	20000615 	stw	zero,24(r4)
   24ac0:	20001705 	stb	zero,92(r4)
   24ac4:	20001745 	stb	zero,93(r4)
   24ac8:	20001785 	stb	zero,94(r4)
   24acc:	200017c5 	stb	zero,95(r4)
   24ad0:	20001805 	stb	zero,96(r4)
   24ad4:	20001845 	stb	zero,97(r4)
   24ad8:	20001885 	stb	zero,98(r4)
   24adc:	200018c5 	stb	zero,99(r4)
   24ae0:	20000c15 	stw	zero,48(r4)
   24ae4:	20000d15 	stw	zero,52(r4)
   24ae8:	20001115 	stw	zero,68(r4)
   24aec:	20001215 	stw	zero,72(r4)
   24af0:	2005883a 	mov	r2,r4
   24af4:	dfc00417 	ldw	ra,16(sp)
   24af8:	dcc00317 	ldw	r19,12(sp)
   24afc:	dc800217 	ldw	r18,8(sp)
   24b00:	dc400117 	ldw	r17,4(sp)
   24b04:	dc000017 	ldw	r16,0(sp)
   24b08:	dec00504 	addi	sp,sp,20
   24b0c:	f800283a 	ret
   24b10:	80800017 	ldw	r2,0(r16)
   24b14:	10000726 	beq	r2,zero,24b34 <__sfp+0xfc>
   24b18:	11000217 	ldw	r4,8(r2)
   24b1c:	11400117 	ldw	r5,4(r2)
   24b20:	1021883a 	mov	r16,r2
   24b24:	003fd306 	br	24a74 <__sfp+0x3c>
   24b28:	8009883a 	mov	r4,r16
   24b2c:	00248680 	call	24868 <__sinit.part.0>
   24b30:	003fcc06 	br	24a64 <__sfp+0x2c>
   24b34:	01406b04 	movi	r5,428
   24b38:	8809883a 	mov	r4,r17
   24b3c:	002582c0 	call	2582c <_malloc_r>
   24b40:	1025883a 	mov	r18,r2
   24b44:	10000c26 	beq	r2,zero,24b78 <__sfp+0x140>
   24b48:	11000304 	addi	r4,r2,12
   24b4c:	11000215 	stw	r4,8(r2)
   24b50:	000b883a 	mov	r5,zero
   24b54:	10000015 	stw	zero,0(r2)
   24b58:	14c00115 	stw	r19,4(r2)
   24b5c:	01806804 	movi	r6,416
   24b60:	00263080 	call	26308 <memset>
   24b64:	1009883a 	mov	r4,r2
   24b68:	84800015 	stw	r18,0(r16)
   24b6c:	014000c4 	movi	r5,3
   24b70:	9021883a 	mov	r16,r18
   24b74:	003fc606 	br	24a90 <__sfp+0x58>
   24b78:	80000015 	stw	zero,0(r16)
   24b7c:	00800304 	movi	r2,12
   24b80:	88800015 	stw	r2,0(r17)
   24b84:	0009883a 	mov	r4,zero
   24b88:	003fd906 	br	24af0 <__sfp+0xb8>

00024b8c <_cleanup>:
   24b8c:	008000f4 	movhi	r2,3
   24b90:	11084917 	ldw	r4,8484(r2)
   24b94:	014000f4 	movhi	r5,3
   24b98:	2965a704 	addi	r5,r5,-26980
   24b9c:	002551c1 	jmpi	2551c <_fwalk_reent>

00024ba0 <__sinit>:
   24ba0:	20800e17 	ldw	r2,56(r4)
   24ba4:	10000126 	beq	r2,zero,24bac <__sinit+0xc>
   24ba8:	f800283a 	ret
   24bac:	00248681 	jmpi	24868 <__sinit.part.0>

00024bb0 <__sfp_lock_acquire>:
   24bb0:	f800283a 	ret

00024bb4 <__sfp_lock_release>:
   24bb4:	f800283a 	ret

00024bb8 <__sinit_lock_acquire>:
   24bb8:	f800283a 	ret

00024bbc <__sinit_lock_release>:
   24bbc:	f800283a 	ret

00024bc0 <__fp_lock_all>:
   24bc0:	008000f4 	movhi	r2,3
   24bc4:	11084a17 	ldw	r4,8488(r2)
   24bc8:	014000b4 	movhi	r5,2
   24bcc:	29521304 	addi	r5,r5,18508
   24bd0:	00254841 	jmpi	25484 <_fwalk>

00024bd4 <__fp_unlock_all>:
   24bd4:	008000f4 	movhi	r2,3
   24bd8:	11084a17 	ldw	r4,8488(r2)
   24bdc:	014000b4 	movhi	r5,2
   24be0:	29521804 	addi	r5,r5,18528
   24be4:	00254841 	jmpi	25484 <_fwalk>

00024be8 <_malloc_trim_r>:
   24be8:	defffb04 	addi	sp,sp,-20
   24bec:	dcc00315 	stw	r19,12(sp)
   24bf0:	04c000f4 	movhi	r19,3
   24bf4:	dc800215 	stw	r18,8(sp)
   24bf8:	dc400115 	stw	r17,4(sp)
   24bfc:	dc000015 	stw	r16,0(sp)
   24c00:	dfc00415 	stw	ra,16(sp)
   24c04:	2821883a 	mov	r16,r5
   24c08:	9cc26a04 	addi	r19,r19,2472
   24c0c:	2025883a 	mov	r18,r4
   24c10:	002db6c0 	call	2db6c <__malloc_lock>
   24c14:	98800217 	ldw	r2,8(r19)
   24c18:	14400117 	ldw	r17,4(r2)
   24c1c:	00bfff04 	movi	r2,-4
   24c20:	88a2703a 	and	r17,r17,r2
   24c24:	8c21c83a 	sub	r16,r17,r16
   24c28:	8403fbc4 	addi	r16,r16,4079
   24c2c:	8020d33a 	srli	r16,r16,12
   24c30:	843fffc4 	addi	r16,r16,-1
   24c34:	8020933a 	slli	r16,r16,12
   24c38:	80840008 	cmpgei	r2,r16,4096
   24c3c:	10000626 	beq	r2,zero,24c58 <_malloc_trim_r+0x70>
   24c40:	000b883a 	mov	r5,zero
   24c44:	9009883a 	mov	r4,r18
   24c48:	0027c400 	call	27c40 <_sbrk_r>
   24c4c:	98c00217 	ldw	r3,8(r19)
   24c50:	1c47883a 	add	r3,r3,r17
   24c54:	10c00a26 	beq	r2,r3,24c80 <_malloc_trim_r+0x98>
   24c58:	9009883a 	mov	r4,r18
   24c5c:	002db900 	call	2db90 <__malloc_unlock>
   24c60:	0005883a 	mov	r2,zero
   24c64:	dfc00417 	ldw	ra,16(sp)
   24c68:	dcc00317 	ldw	r19,12(sp)
   24c6c:	dc800217 	ldw	r18,8(sp)
   24c70:	dc400117 	ldw	r17,4(sp)
   24c74:	dc000017 	ldw	r16,0(sp)
   24c78:	dec00504 	addi	sp,sp,20
   24c7c:	f800283a 	ret
   24c80:	040bc83a 	sub	r5,zero,r16
   24c84:	9009883a 	mov	r4,r18
   24c88:	0027c400 	call	27c40 <_sbrk_r>
   24c8c:	10bfffd8 	cmpnei	r2,r2,-1
   24c90:	10000d26 	beq	r2,zero,24cc8 <_malloc_trim_r+0xe0>
   24c94:	008000f4 	movhi	r2,3
   24c98:	108f5c17 	ldw	r2,15728(r2)
   24c9c:	98c00217 	ldw	r3,8(r19)
   24ca0:	8c23c83a 	sub	r17,r17,r16
   24ca4:	8c400054 	ori	r17,r17,1
   24ca8:	1421c83a 	sub	r16,r2,r16
   24cac:	1c400115 	stw	r17,4(r3)
   24cb0:	008000f4 	movhi	r2,3
   24cb4:	9009883a 	mov	r4,r18
   24cb8:	140f5c15 	stw	r16,15728(r2)
   24cbc:	002db900 	call	2db90 <__malloc_unlock>
   24cc0:	00800044 	movi	r2,1
   24cc4:	003fe706 	br	24c64 <_malloc_trim_r+0x7c>
   24cc8:	000b883a 	mov	r5,zero
   24ccc:	9009883a 	mov	r4,r18
   24cd0:	0027c400 	call	27c40 <_sbrk_r>
   24cd4:	99000217 	ldw	r4,8(r19)
   24cd8:	1107c83a 	sub	r3,r2,r4
   24cdc:	19400410 	cmplti	r5,r3,16
   24ce0:	283fdd1e 	bne	r5,zero,24c58 <_malloc_trim_r+0x70>
   24ce4:	014000f4 	movhi	r5,3
   24ce8:	29484b17 	ldw	r5,8492(r5)
   24cec:	18c00054 	ori	r3,r3,1
   24cf0:	20c00115 	stw	r3,4(r4)
   24cf4:	1145c83a 	sub	r2,r2,r5
   24cf8:	014000f4 	movhi	r5,3
   24cfc:	288f5c15 	stw	r2,15728(r5)
   24d00:	003fd506 	br	24c58 <_malloc_trim_r+0x70>

00024d04 <_free_r>:
   24d04:	28004f26 	beq	r5,zero,24e44 <_free_r+0x140>
   24d08:	defffd04 	addi	sp,sp,-12
   24d0c:	dc400115 	stw	r17,4(sp)
   24d10:	dc000015 	stw	r16,0(sp)
   24d14:	2023883a 	mov	r17,r4
   24d18:	2821883a 	mov	r16,r5
   24d1c:	dfc00215 	stw	ra,8(sp)
   24d20:	002db6c0 	call	2db6c <__malloc_lock>
   24d24:	81ffff17 	ldw	r7,-4(r16)
   24d28:	00bfff84 	movi	r2,-2
   24d2c:	80fffe04 	addi	r3,r16,-8
   24d30:	3884703a 	and	r2,r7,r2
   24d34:	010000f4 	movhi	r4,3
   24d38:	188d883a 	add	r6,r3,r2
   24d3c:	21026a04 	addi	r4,r4,2472
   24d40:	31400117 	ldw	r5,4(r6)
   24d44:	22000217 	ldw	r8,8(r4)
   24d48:	027fff04 	movi	r9,-4
   24d4c:	2a4a703a 	and	r5,r5,r9
   24d50:	41806426 	beq	r8,r6,24ee4 <_free_r+0x1e0>
   24d54:	31400115 	stw	r5,4(r6)
   24d58:	39c0004c 	andi	r7,r7,1
   24d5c:	3151883a 	add	r8,r6,r5
   24d60:	3800281e 	bne	r7,zero,24e04 <_free_r+0x100>
   24d64:	82bffe17 	ldw	r10,-8(r16)
   24d68:	42000117 	ldw	r8,4(r8)
   24d6c:	01c000f4 	movhi	r7,3
   24d70:	1a87c83a 	sub	r3,r3,r10
   24d74:	1a400217 	ldw	r9,8(r3)
   24d78:	39c26c04 	addi	r7,r7,2480
   24d7c:	1285883a 	add	r2,r2,r10
   24d80:	4200004c 	andi	r8,r8,1
   24d84:	49c04c26 	beq	r9,r7,24eb8 <_free_r+0x1b4>
   24d88:	1a800317 	ldw	r10,12(r3)
   24d8c:	4a800315 	stw	r10,12(r9)
   24d90:	52400215 	stw	r9,8(r10)
   24d94:	40007126 	beq	r8,zero,24f5c <_free_r+0x258>
   24d98:	11400054 	ori	r5,r2,1
   24d9c:	19400115 	stw	r5,4(r3)
   24da0:	30800015 	stw	r2,0(r6)
   24da4:	11408028 	cmpgeui	r5,r2,512
   24da8:	28002c1e 	bne	r5,zero,24e5c <_free_r+0x158>
   24dac:	100ad0fa 	srli	r5,r2,3
   24db0:	100cd17a 	srli	r6,r2,5
   24db4:	00800044 	movi	r2,1
   24db8:	29400044 	addi	r5,r5,1
   24dbc:	280a90fa 	slli	r5,r5,3
   24dc0:	21c00117 	ldw	r7,4(r4)
   24dc4:	1184983a 	sll	r2,r2,r6
   24dc8:	214b883a 	add	r5,r4,r5
   24dcc:	29800017 	ldw	r6,0(r5)
   24dd0:	11c4b03a 	or	r2,r2,r7
   24dd4:	29fffe04 	addi	r7,r5,-8
   24dd8:	19c00315 	stw	r7,12(r3)
   24ddc:	19800215 	stw	r6,8(r3)
   24de0:	20800115 	stw	r2,4(r4)
   24de4:	28c00015 	stw	r3,0(r5)
   24de8:	30c00315 	stw	r3,12(r6)
   24dec:	8809883a 	mov	r4,r17
   24df0:	dfc00217 	ldw	ra,8(sp)
   24df4:	dc400117 	ldw	r17,4(sp)
   24df8:	dc000017 	ldw	r16,0(sp)
   24dfc:	dec00304 	addi	sp,sp,12
   24e00:	002db901 	jmpi	2db90 <__malloc_unlock>
   24e04:	41c00117 	ldw	r7,4(r8)
   24e08:	39c0004c 	andi	r7,r7,1
   24e0c:	38000e1e 	bne	r7,zero,24e48 <_free_r+0x144>
   24e10:	01c000f4 	movhi	r7,3
   24e14:	1145883a 	add	r2,r2,r5
   24e18:	39c26c04 	addi	r7,r7,2480
   24e1c:	31400217 	ldw	r5,8(r6)
   24e20:	12400054 	ori	r9,r2,1
   24e24:	1891883a 	add	r8,r3,r2
   24e28:	29c05226 	beq	r5,r7,24f74 <_free_r+0x270>
   24e2c:	31800317 	ldw	r6,12(r6)
   24e30:	29800315 	stw	r6,12(r5)
   24e34:	31400215 	stw	r5,8(r6)
   24e38:	1a400115 	stw	r9,4(r3)
   24e3c:	40800015 	stw	r2,0(r8)
   24e40:	003fd806 	br	24da4 <_free_r+0xa0>
   24e44:	f800283a 	ret
   24e48:	11400054 	ori	r5,r2,1
   24e4c:	817fff15 	stw	r5,-4(r16)
   24e50:	30800015 	stw	r2,0(r6)
   24e54:	11408028 	cmpgeui	r5,r2,512
   24e58:	283fd426 	beq	r5,zero,24dac <_free_r+0xa8>
   24e5c:	100ad27a 	srli	r5,r2,9
   24e60:	29800168 	cmpgeui	r6,r5,5
   24e64:	3000341e 	bne	r6,zero,24f38 <_free_r+0x234>
   24e68:	100ad1ba 	srli	r5,r2,6
   24e6c:	29800e44 	addi	r6,r5,57
   24e70:	300c90fa 	slli	r6,r6,3
   24e74:	29c00e04 	addi	r7,r5,56
   24e78:	218d883a 	add	r6,r4,r6
   24e7c:	31400017 	ldw	r5,0(r6)
   24e80:	31bffe04 	addi	r6,r6,-8
   24e84:	31404226 	beq	r6,r5,24f90 <_free_r+0x28c>
   24e88:	01ffff04 	movi	r7,-4
   24e8c:	29000117 	ldw	r4,4(r5)
   24e90:	21c8703a 	and	r4,r4,r7
   24e94:	1100022e 	bgeu	r2,r4,24ea0 <_free_r+0x19c>
   24e98:	29400217 	ldw	r5,8(r5)
   24e9c:	317ffb1e 	bne	r6,r5,24e8c <_free_r+0x188>
   24ea0:	29800317 	ldw	r6,12(r5)
   24ea4:	19800315 	stw	r6,12(r3)
   24ea8:	19400215 	stw	r5,8(r3)
   24eac:	30c00215 	stw	r3,8(r6)
   24eb0:	28c00315 	stw	r3,12(r5)
   24eb4:	003fcd06 	br	24dec <_free_r+0xe8>
   24eb8:	40004d1e 	bne	r8,zero,24ff0 <_free_r+0x2ec>
   24ebc:	31000317 	ldw	r4,12(r6)
   24ec0:	31800217 	ldw	r6,8(r6)
   24ec4:	2885883a 	add	r2,r5,r2
   24ec8:	11400054 	ori	r5,r2,1
   24ecc:	31000315 	stw	r4,12(r6)
   24ed0:	21800215 	stw	r6,8(r4)
   24ed4:	19400115 	stw	r5,4(r3)
   24ed8:	1887883a 	add	r3,r3,r2
   24edc:	18800015 	stw	r2,0(r3)
   24ee0:	003fc206 	br	24dec <_free_r+0xe8>
   24ee4:	39c0004c 	andi	r7,r7,1
   24ee8:	1145883a 	add	r2,r2,r5
   24eec:	3800071e 	bne	r7,zero,24f0c <_free_r+0x208>
   24ef0:	81fffe17 	ldw	r7,-8(r16)
   24ef4:	19c7c83a 	sub	r3,r3,r7
   24ef8:	19400317 	ldw	r5,12(r3)
   24efc:	19800217 	ldw	r6,8(r3)
   24f00:	11c5883a 	add	r2,r2,r7
   24f04:	31400315 	stw	r5,12(r6)
   24f08:	29800215 	stw	r6,8(r5)
   24f0c:	014000f4 	movhi	r5,3
   24f10:	11800054 	ori	r6,r2,1
   24f14:	29484c17 	ldw	r5,8496(r5)
   24f18:	19800115 	stw	r6,4(r3)
   24f1c:	20c00215 	stw	r3,8(r4)
   24f20:	117fb236 	bltu	r2,r5,24dec <_free_r+0xe8>
   24f24:	008000f4 	movhi	r2,3
   24f28:	114f5117 	ldw	r5,15684(r2)
   24f2c:	8809883a 	mov	r4,r17
   24f30:	0024be80 	call	24be8 <_malloc_trim_r>
   24f34:	003fad06 	br	24dec <_free_r+0xe8>
   24f38:	29800568 	cmpgeui	r6,r5,21
   24f3c:	30000926 	beq	r6,zero,24f64 <_free_r+0x260>
   24f40:	29801568 	cmpgeui	r6,r5,85
   24f44:	3000191e 	bne	r6,zero,24fac <_free_r+0x2a8>
   24f48:	100ad33a 	srli	r5,r2,12
   24f4c:	29801bc4 	addi	r6,r5,111
   24f50:	300c90fa 	slli	r6,r6,3
   24f54:	29c01b84 	addi	r7,r5,110
   24f58:	003fc706 	br	24e78 <_free_r+0x174>
   24f5c:	1145883a 	add	r2,r2,r5
   24f60:	003fae06 	br	24e1c <_free_r+0x118>
   24f64:	29801704 	addi	r6,r5,92
   24f68:	300c90fa 	slli	r6,r6,3
   24f6c:	29c016c4 	addi	r7,r5,91
   24f70:	003fc106 	br	24e78 <_free_r+0x174>
   24f74:	20c00515 	stw	r3,20(r4)
   24f78:	20c00415 	stw	r3,16(r4)
   24f7c:	19c00315 	stw	r7,12(r3)
   24f80:	19c00215 	stw	r7,8(r3)
   24f84:	1a400115 	stw	r9,4(r3)
   24f88:	40800015 	stw	r2,0(r8)
   24f8c:	003f9706 	br	24dec <_free_r+0xe8>
   24f90:	380fd0ba 	srai	r7,r7,2
   24f94:	00800044 	movi	r2,1
   24f98:	22000117 	ldw	r8,4(r4)
   24f9c:	11ce983a 	sll	r7,r2,r7
   24fa0:	3a0eb03a 	or	r7,r7,r8
   24fa4:	21c00115 	stw	r7,4(r4)
   24fa8:	003fbe06 	br	24ea4 <_free_r+0x1a0>
   24fac:	29805568 	cmpgeui	r6,r5,341
   24fb0:	3000051e 	bne	r6,zero,24fc8 <_free_r+0x2c4>
   24fb4:	100ad3fa 	srli	r5,r2,15
   24fb8:	29801e04 	addi	r6,r5,120
   24fbc:	300c90fa 	slli	r6,r6,3
   24fc0:	29c01dc4 	addi	r7,r5,119
   24fc4:	003fac06 	br	24e78 <_free_r+0x174>
   24fc8:	29415568 	cmpgeui	r5,r5,1365
   24fcc:	2800051e 	bne	r5,zero,24fe4 <_free_r+0x2e0>
   24fd0:	100ad4ba 	srli	r5,r2,18
   24fd4:	29801f44 	addi	r6,r5,125
   24fd8:	300c90fa 	slli	r6,r6,3
   24fdc:	29c01f04 	addi	r7,r5,124
   24fe0:	003fa506 	br	24e78 <_free_r+0x174>
   24fe4:	0180fe04 	movi	r6,1016
   24fe8:	01c01f84 	movi	r7,126
   24fec:	003fa206 	br	24e78 <_free_r+0x174>
   24ff0:	11000054 	ori	r4,r2,1
   24ff4:	19000115 	stw	r4,4(r3)
   24ff8:	30800015 	stw	r2,0(r6)
   24ffc:	003f7b06 	br	24dec <_free_r+0xe8>

00025000 <__sfvwrite_r>:
   25000:	30800217 	ldw	r2,8(r6)
   25004:	10009a26 	beq	r2,zero,25270 <__sfvwrite_r+0x270>
   25008:	2a00030b 	ldhu	r8,12(r5)
   2500c:	defff404 	addi	sp,sp,-48
   25010:	dd400715 	stw	r21,28(sp)
   25014:	dd000615 	stw	r20,24(sp)
   25018:	dc000215 	stw	r16,8(sp)
   2501c:	dfc00b15 	stw	ra,44(sp)
   25020:	df000a15 	stw	fp,40(sp)
   25024:	ddc00915 	stw	r23,36(sp)
   25028:	dd800815 	stw	r22,32(sp)
   2502c:	dcc00515 	stw	r19,20(sp)
   25030:	dc800415 	stw	r18,16(sp)
   25034:	dc400315 	stw	r17,12(sp)
   25038:	4080020c 	andi	r2,r8,8
   2503c:	3029883a 	mov	r20,r6
   25040:	202b883a 	mov	r21,r4
   25044:	2821883a 	mov	r16,r5
   25048:	10002626 	beq	r2,zero,250e4 <__sfvwrite_r+0xe4>
   2504c:	28800417 	ldw	r2,16(r5)
   25050:	10002426 	beq	r2,zero,250e4 <__sfvwrite_r+0xe4>
   25054:	4080008c 	andi	r2,r8,2
   25058:	a4400017 	ldw	r17,0(r20)
   2505c:	10002926 	beq	r2,zero,25104 <__sfvwrite_r+0x104>
   25060:	05a00034 	movhi	r22,32768
   25064:	0027883a 	mov	r19,zero
   25068:	0025883a 	mov	r18,zero
   2506c:	b5bf0004 	addi	r22,r22,-1024
   25070:	980d883a 	mov	r6,r19
   25074:	a809883a 	mov	r4,r21
   25078:	90007026 	beq	r18,zero,2523c <__sfvwrite_r+0x23c>
   2507c:	900f883a 	mov	r7,r18
   25080:	b480012e 	bgeu	r22,r18,25088 <__sfvwrite_r+0x88>
   25084:	b00f883a 	mov	r7,r22
   25088:	80800917 	ldw	r2,36(r16)
   2508c:	81400717 	ldw	r5,28(r16)
   25090:	103ee83a 	callr	r2
   25094:	0080710e 	bge	zero,r2,2525c <__sfvwrite_r+0x25c>
   25098:	a0c00217 	ldw	r3,8(r20)
   2509c:	98a7883a 	add	r19,r19,r2
   250a0:	90a5c83a 	sub	r18,r18,r2
   250a4:	1885c83a 	sub	r2,r3,r2
   250a8:	a0800215 	stw	r2,8(r20)
   250ac:	103ff01e 	bne	r2,zero,25070 <__sfvwrite_r+0x70>
   250b0:	0005883a 	mov	r2,zero
   250b4:	dfc00b17 	ldw	ra,44(sp)
   250b8:	df000a17 	ldw	fp,40(sp)
   250bc:	ddc00917 	ldw	r23,36(sp)
   250c0:	dd800817 	ldw	r22,32(sp)
   250c4:	dd400717 	ldw	r21,28(sp)
   250c8:	dd000617 	ldw	r20,24(sp)
   250cc:	dcc00517 	ldw	r19,20(sp)
   250d0:	dc800417 	ldw	r18,16(sp)
   250d4:	dc400317 	ldw	r17,12(sp)
   250d8:	dc000217 	ldw	r16,8(sp)
   250dc:	dec00c04 	addi	sp,sp,48
   250e0:	f800283a 	ret
   250e4:	800b883a 	mov	r5,r16
   250e8:	a809883a 	mov	r4,r21
   250ec:	0022a980 	call	22a98 <__swsetup_r>
   250f0:	1000e21e 	bne	r2,zero,2547c <__sfvwrite_r+0x47c>
   250f4:	8200030b 	ldhu	r8,12(r16)
   250f8:	a4400017 	ldw	r17,0(r20)
   250fc:	4080008c 	andi	r2,r8,2
   25100:	103fd71e 	bne	r2,zero,25060 <__sfvwrite_r+0x60>
   25104:	4080004c 	andi	r2,r8,1
   25108:	10005b1e 	bne	r2,zero,25278 <__sfvwrite_r+0x278>
   2510c:	00a00034 	movhi	r2,32768
   25110:	10bfff84 	addi	r2,r2,-2
   25114:	00e00034 	movhi	r3,32768
   25118:	d8800015 	stw	r2,0(sp)
   2511c:	18bfffc4 	addi	r2,r3,-1
   25120:	0039883a 	mov	fp,zero
   25124:	0025883a 	mov	r18,zero
   25128:	d8800115 	stw	r2,4(sp)
   2512c:	90003f26 	beq	r18,zero,2522c <__sfvwrite_r+0x22c>
   25130:	4080800c 	andi	r2,r8,512
   25134:	81000017 	ldw	r4,0(r16)
   25138:	85c00217 	ldw	r23,8(r16)
   2513c:	10008726 	beq	r2,zero,2535c <__sfvwrite_r+0x35c>
   25140:	b82d883a 	mov	r22,r23
   25144:	95c0aa36 	bltu	r18,r23,253f0 <__sfvwrite_r+0x3f0>
   25148:	4081200c 	andi	r2,r8,1152
   2514c:	10002526 	beq	r2,zero,251e4 <__sfvwrite_r+0x1e4>
   25150:	80800517 	ldw	r2,20(r16)
   25154:	81400417 	ldw	r5,16(r16)
   25158:	108000e4 	muli	r2,r2,3
   2515c:	216dc83a 	sub	r22,r4,r5
   25160:	b1000044 	addi	r4,r22,1
   25164:	1026d7fa 	srli	r19,r2,31
   25168:	2489883a 	add	r4,r4,r18
   2516c:	9885883a 	add	r2,r19,r2
   25170:	1027d07a 	srai	r19,r2,1
   25174:	980d883a 	mov	r6,r19
   25178:	9900022e 	bgeu	r19,r4,25184 <__sfvwrite_r+0x184>
   2517c:	2027883a 	mov	r19,r4
   25180:	200d883a 	mov	r6,r4
   25184:	4201000c 	andi	r8,r8,1024
   25188:	4000ac26 	beq	r8,zero,2543c <__sfvwrite_r+0x43c>
   2518c:	300b883a 	mov	r5,r6
   25190:	a809883a 	mov	r4,r21
   25194:	002582c0 	call	2582c <_malloc_r>
   25198:	1000b426 	beq	r2,zero,2546c <__sfvwrite_r+0x46c>
   2519c:	81400417 	ldw	r5,16(r16)
   251a0:	b00d883a 	mov	r6,r22
   251a4:	1009883a 	mov	r4,r2
   251a8:	00260dc0 	call	260dc <memcpy>
   251ac:	100f883a 	mov	r7,r2
   251b0:	8080030b 	ldhu	r2,12(r16)
   251b4:	00fedfc4 	movi	r3,-1153
   251b8:	10c4703a 	and	r2,r2,r3
   251bc:	10802014 	ori	r2,r2,128
   251c0:	8080030d 	sth	r2,12(r16)
   251c4:	3d89883a 	add	r4,r7,r22
   251c8:	9d85c83a 	sub	r2,r19,r22
   251cc:	81c00415 	stw	r7,16(r16)
   251d0:	81000015 	stw	r4,0(r16)
   251d4:	84c00515 	stw	r19,20(r16)
   251d8:	902f883a 	mov	r23,r18
   251dc:	80800215 	stw	r2,8(r16)
   251e0:	902d883a 	mov	r22,r18
   251e4:	b00d883a 	mov	r6,r22
   251e8:	e00b883a 	mov	r5,fp
   251ec:	00261dc0 	call	261dc <memmove>
   251f0:	81000217 	ldw	r4,8(r16)
   251f4:	80800017 	ldw	r2,0(r16)
   251f8:	9027883a 	mov	r19,r18
   251fc:	25c9c83a 	sub	r4,r4,r23
   25200:	1585883a 	add	r2,r2,r22
   25204:	81000215 	stw	r4,8(r16)
   25208:	80800015 	stw	r2,0(r16)
   2520c:	0025883a 	mov	r18,zero
   25210:	a1800217 	ldw	r6,8(r20)
   25214:	e4f9883a 	add	fp,fp,r19
   25218:	34e7c83a 	sub	r19,r6,r19
   2521c:	a4c00215 	stw	r19,8(r20)
   25220:	983fa326 	beq	r19,zero,250b0 <__sfvwrite_r+0xb0>
   25224:	8200030b 	ldhu	r8,12(r16)
   25228:	903fc11e 	bne	r18,zero,25130 <__sfvwrite_r+0x130>
   2522c:	8f000017 	ldw	fp,0(r17)
   25230:	8c800117 	ldw	r18,4(r17)
   25234:	8c400204 	addi	r17,r17,8
   25238:	003fbc06 	br	2512c <__sfvwrite_r+0x12c>
   2523c:	8cc00017 	ldw	r19,0(r17)
   25240:	8c800117 	ldw	r18,4(r17)
   25244:	8c400204 	addi	r17,r17,8
   25248:	003f8906 	br	25070 <__sfvwrite_r+0x70>
   2524c:	800b883a 	mov	r5,r16
   25250:	a809883a 	mov	r4,r21
   25254:	00247680 	call	24768 <_fflush_r>
   25258:	10002226 	beq	r2,zero,252e4 <__sfvwrite_r+0x2e4>
   2525c:	8080030b 	ldhu	r2,12(r16)
   25260:	10801014 	ori	r2,r2,64
   25264:	8080030d 	sth	r2,12(r16)
   25268:	00bfffc4 	movi	r2,-1
   2526c:	003f9106 	br	250b4 <__sfvwrite_r+0xb4>
   25270:	0005883a 	mov	r2,zero
   25274:	f800283a 	ret
   25278:	002d883a 	mov	r22,zero
   2527c:	0039883a 	mov	fp,zero
   25280:	0005883a 	mov	r2,zero
   25284:	002f883a 	mov	r23,zero
   25288:	b0001d26 	beq	r22,zero,25300 <__sfvwrite_r+0x300>
   2528c:	10002026 	beq	r2,zero,25310 <__sfvwrite_r+0x310>
   25290:	e027883a 	mov	r19,fp
   25294:	b4c0012e 	bgeu	r22,r19,2529c <__sfvwrite_r+0x29c>
   25298:	b027883a 	mov	r19,r22
   2529c:	81000017 	ldw	r4,0(r16)
   252a0:	80800417 	ldw	r2,16(r16)
   252a4:	81c00517 	ldw	r7,20(r16)
   252a8:	1100032e 	bgeu	r2,r4,252b8 <__sfvwrite_r+0x2b8>
   252ac:	84800217 	ldw	r18,8(r16)
   252b0:	3ca5883a 	add	r18,r7,r18
   252b4:	94c01e16 	blt	r18,r19,25330 <__sfvwrite_r+0x330>
   252b8:	99c05016 	blt	r19,r7,253fc <__sfvwrite_r+0x3fc>
   252bc:	80800917 	ldw	r2,36(r16)
   252c0:	81400717 	ldw	r5,28(r16)
   252c4:	b80d883a 	mov	r6,r23
   252c8:	a809883a 	mov	r4,r21
   252cc:	103ee83a 	callr	r2
   252d0:	1025883a 	mov	r18,r2
   252d4:	00bfe10e 	bge	zero,r2,2525c <__sfvwrite_r+0x25c>
   252d8:	e4b9c83a 	sub	fp,fp,r18
   252dc:	e03fdb26 	beq	fp,zero,2524c <__sfvwrite_r+0x24c>
   252e0:	00800044 	movi	r2,1
   252e4:	a1800217 	ldw	r6,8(r20)
   252e8:	bcaf883a 	add	r23,r23,r18
   252ec:	b4adc83a 	sub	r22,r22,r18
   252f0:	34a5c83a 	sub	r18,r6,r18
   252f4:	a4800215 	stw	r18,8(r20)
   252f8:	903f6d26 	beq	r18,zero,250b0 <__sfvwrite_r+0xb0>
   252fc:	b03fe31e 	bne	r22,zero,2528c <__sfvwrite_r+0x28c>
   25300:	8d800117 	ldw	r22,4(r17)
   25304:	8dc00017 	ldw	r23,0(r17)
   25308:	8c400204 	addi	r17,r17,8
   2530c:	b03ffc26 	beq	r22,zero,25300 <__sfvwrite_r+0x300>
   25310:	b00d883a 	mov	r6,r22
   25314:	01400284 	movi	r5,10
   25318:	b809883a 	mov	r4,r23
   2531c:	002600c0 	call	2600c <memchr>
   25320:	10004326 	beq	r2,zero,25430 <__sfvwrite_r+0x430>
   25324:	10800044 	addi	r2,r2,1
   25328:	15f9c83a 	sub	fp,r2,r23
   2532c:	003fd806 	br	25290 <__sfvwrite_r+0x290>
   25330:	b80b883a 	mov	r5,r23
   25334:	900d883a 	mov	r6,r18
   25338:	00261dc0 	call	261dc <memmove>
   2533c:	80800017 	ldw	r2,0(r16)
   25340:	800b883a 	mov	r5,r16
   25344:	a809883a 	mov	r4,r21
   25348:	1485883a 	add	r2,r2,r18
   2534c:	80800015 	stw	r2,0(r16)
   25350:	00247680 	call	24768 <_fflush_r>
   25354:	103fe026 	beq	r2,zero,252d8 <__sfvwrite_r+0x2d8>
   25358:	003fc006 	br	2525c <__sfvwrite_r+0x25c>
   2535c:	80800417 	ldw	r2,16(r16)
   25360:	11001136 	bltu	r2,r4,253a8 <__sfvwrite_r+0x3a8>
   25364:	84c00517 	ldw	r19,20(r16)
   25368:	94c00f36 	bltu	r18,r19,253a8 <__sfvwrite_r+0x3a8>
